
elf_output/arm_ucos.elf:     file format elf32-littlearm


Disassembly of section .text:

30000000 <_start>:
30000000:	ea00000e 	b	30000040 <start_code>
30000004:	e59ff014 	ldr	pc, [pc, #20]	; 30000020 <_undefined_instruction>
30000008:	e59ff014 	ldr	pc, [pc, #20]	; 30000024 <_software_interrupt>
3000000c:	e59ff014 	ldr	pc, [pc, #20]	; 30000028 <_prefetch_abort>
30000010:	e59ff014 	ldr	pc, [pc, #20]	; 3000002c <_data_abort>
30000014:	e59ff014 	ldr	pc, [pc, #20]	; 30000030 <_not_used>
30000018:	e59ff014 	ldr	pc, [pc, #20]	; 30000034 <_irq>
3000001c:	e59ff014 	ldr	pc, [pc, #20]	; 30000038 <_fiq>

30000020 <_undefined_instruction>:
30000020:	300001e0 	andcc	r0, r0, r0, ror #3

30000024 <_software_interrupt>:
30000024:	30000200 	andcc	r0, r0, r0, lsl #4

30000028 <_prefetch_abort>:
30000028:	30000220 	andcc	r0, r0, r0, lsr #4

3000002c <_data_abort>:
3000002c:	30000240 	andcc	r0, r0, r0, asr #4

30000030 <_not_used>:
30000030:	30000260 	andcc	r0, r0, r0, ror #4

30000034 <_irq>:
30000034:	30000280 	andcc	r0, r0, r0, lsl #5

30000038 <_fiq>:
30000038:	300002a0 	andcc	r0, r0, r0, lsr #5
3000003c:	deadbeef 	cdple	14, 10, cr11, cr13, cr15, {7}

30000040 <start_code>:
30000040:	e3a00453 	mov	r0, #1392508928	; 0x53000000
30000044:	e3a01000 	mov	r1, #0
30000048:	e5801000 	str	r1, [r0]
3000004c:	e59f025c 	ldr	r0, [pc, #604]	; 300002b0 <fiq+0x10>
30000050:	e3e01000 	mvn	r1, #0
30000054:	e5801000 	str	r1, [r0]
30000058:	e59f0254 	ldr	r0, [pc, #596]	; 300002b4 <fiq+0x14>
3000005c:	e59f1254 	ldr	r1, [pc, #596]	; 300002b8 <fiq+0x18>
30000060:	e5801000 	str	r1, [r0]
30000064:	e3a00313 	mov	r0, #1275068416	; 0x4c000000
30000068:	e3e014ff 	mvn	r1, #-16777216	; 0xff000000
3000006c:	e5801000 	str	r1, [r0]
30000070:	e59f0244 	ldr	r0, [pc, #580]	; 300002bc <fiq+0x1c>
30000074:	e3a01003 	mov	r1, #3
30000078:	e5801000 	str	r1, [r0]
3000007c:	ee110f10 	mrc	15, 0, r0, cr1, cr0, {0}
30000080:	e3800103 	orr	r0, r0, #-1073741824	; 0xc0000000
30000084:	ee010f10 	mcr	15, 0, r0, cr1, cr0, {0}
30000088:	e59f0230 	ldr	r0, [pc, #560]	; 300002c0 <fiq+0x20>
3000008c:	e59f1230 	ldr	r1, [pc, #560]	; 300002c4 <fiq+0x24>
30000090:	e5801000 	str	r1, [r0]
30000094:	e1a00000 	nop			; (mov r0, r0)
30000098:	e1a00000 	nop			; (mov r0, r0)
3000009c:	e1a00000 	nop			; (mov r0, r0)
300000a0:	e1a00000 	nop			; (mov r0, r0)
300000a4:	e1a00000 	nop			; (mov r0, r0)
300000a8:	e1a00000 	nop			; (mov r0, r0)
300000ac:	e1a00000 	nop			; (mov r0, r0)
300000b0:	e59f0210 	ldr	r0, [pc, #528]	; 300002c8 <fiq+0x28>
300000b4:	e59f1210 	ldr	r1, [pc, #528]	; 300002cc <fiq+0x2c>
300000b8:	e5801000 	str	r1, [r0]
300000bc:	eb000013 	bl	30000110 <sdram_init>
300000c0:	eb00002b 	bl	30000174 <InitStacks>
300000c4:	e3a00312 	mov	r0, #1207959552	; 0x48000000
300000c8:	e5900000 	ldr	r0, [r0]
300000cc:	e2100006 	ands	r0, r0, #6
300000d0:	159ff1f8 	ldrne	pc, [pc, #504]	; 300002d0 <fiq+0x30>
300000d4:	e24f009c 	sub	r0, pc, #156	; 0x9c
300000d8:	e3500040 	cmp	r0, #64	; 0x40
300000dc:	159ff1ec 	ldrne	pc, [pc, #492]	; 300002d0 <fiq+0x30>

300000e0 <nand_boot_beg>:
300000e0:	eb0001ec 	bl	30000898 <RdNF2SDRAM>
300000e4:	e10f0000 	mrs	r0, CPSR
300000e8:	e3c0001f 	bic	r0, r0, #31
300000ec:	e380101f 	orr	r1, r0, #31
300000f0:	e3c110c0 	bic	r1, r1, #192	; 0xc0
300000f4:	e12ff001 	msr	CPSR_fsxc, r1
300000f8:	e59fd1d4 	ldr	sp, [pc, #468]	; 300002d4 <fiq+0x34>
300000fc:	e59fe1d4 	ldr	lr, [pc, #468]	; 300002d8 <fiq+0x38>
30000100:	e59ff1c8 	ldr	pc, [pc, #456]	; 300002d0 <fiq+0x30>

30000104 <start_os>:
30000104:	eb000f1f 	bl	30003d88 <main>
30000108:	e59ff1cc 	ldr	pc, [pc, #460]	; 300002dc <fiq+0x3c>

3000010c <halt>:
3000010c:	ebfffffe 	bl	3000010c <halt>

30000110 <sdram_init>:
30000110:	e3a01312 	mov	r1, #1207959552	; 0x48000000
30000114:	e28f2024 	add	r2, pc, #36	; 0x24
30000118:	e1a00000 	nop			; (mov r0, r0)
3000011c:	e2813034 	add	r3, r1, #52	; 0x34
30000120:	e4924004 	ldr	r4, [r2], #4
30000124:	e4814004 	str	r4, [r1], #4
30000128:	e1510003 	cmp	r1, r3
3000012c:	1afffffb 	bne	30000120 <sdram_init+0x10>
30000130:	e1a0f00e 	mov	pc, lr
30000134:	e1a00000 	nop			; (mov r0, r0)
30000138:	e1a00000 	nop			; (mov r0, r0)
3000013c:	e1a00000 	nop			; (mov r0, r0)

30000140 <mem_cfg_val>:
30000140:	22011110 	andcs	r1, r1, #16, 2
30000144:	00000700 	andeq	r0, r0, r0, lsl #14
30000148:	00000700 	andeq	r0, r0, r0, lsl #14
3000014c:	00000700 	andeq	r0, r0, r0, lsl #14
30000150:	00000700 	andeq	r0, r0, r0, lsl #14
30000154:	00000700 	andeq	r0, r0, r0, lsl #14
30000158:	00000700 	andeq	r0, r0, r0, lsl #14
3000015c:	00018005 	andeq	r8, r1, r5
30000160:	00018005 	andeq	r8, r1, r5
30000164:	008404f4 	strdeq	r0, [r4], r4
30000168:	000000b1 	strheq	r0, [r0], -r1
3000016c:	00000030 	andeq	r0, r0, r0, lsr r0
30000170:	00000030 	andeq	r0, r0, r0, lsr r0

30000174 <InitStacks>:
30000174:	e10f0000 	mrs	r0, CPSR
30000178:	e3c0001f 	bic	r0, r0, #31
3000017c:	e380101b 	orr	r1, r0, #27
30000180:	e38110c0 	orr	r1, r1, #192	; 0xc0
30000184:	e12ff001 	msr	CPSR_fsxc, r1
30000188:	e59fd150 	ldr	sp, [pc, #336]	; 300002e0 <fiq+0x40>
3000018c:	e3801017 	orr	r1, r0, #23
30000190:	e38110c0 	orr	r1, r1, #192	; 0xc0
30000194:	e12ff001 	msr	CPSR_fsxc, r1
30000198:	e59fd144 	ldr	sp, [pc, #324]	; 300002e4 <fiq+0x44>
3000019c:	e3801012 	orr	r1, r0, #18
300001a0:	e38110c0 	orr	r1, r1, #192	; 0xc0
300001a4:	e12ff001 	msr	CPSR_fsxc, r1
300001a8:	e59fd138 	ldr	sp, [pc, #312]	; 300002e8 <fiq+0x48>
300001ac:	e3801011 	orr	r1, r0, #17
300001b0:	e38110c0 	orr	r1, r1, #192	; 0xc0
300001b4:	e12ff001 	msr	CPSR_fsxc, r1
300001b8:	e59fd12c 	ldr	sp, [pc, #300]	; 300002ec <fiq+0x4c>
300001bc:	e3801013 	orr	r1, r0, #19
300001c0:	e38110c0 	orr	r1, r1, #192	; 0xc0
300001c4:	e12ff001 	msr	CPSR_fsxc, r1
300001c8:	e59fd120 	ldr	sp, [pc, #288]	; 300002f0 <fiq+0x50>
300001cc:	e1a0f00e 	mov	pc, lr
300001d0:	e1a00000 	nop			; (mov r0, r0)
300001d4:	e1a00000 	nop			; (mov r0, r0)
300001d8:	e1a00000 	nop			; (mov r0, r0)
300001dc:	e1a00000 	nop			; (mov r0, r0)

300001e0 <undefined_instruction>:
300001e0:	ebfffffe 	bl	300001e0 <undefined_instruction>
300001e4:	e1a00000 	nop			; (mov r0, r0)
300001e8:	e1a00000 	nop			; (mov r0, r0)
300001ec:	e1a00000 	nop			; (mov r0, r0)
300001f0:	e1a00000 	nop			; (mov r0, r0)
300001f4:	e1a00000 	nop			; (mov r0, r0)
300001f8:	e1a00000 	nop			; (mov r0, r0)
300001fc:	e1a00000 	nop			; (mov r0, r0)

30000200 <software_interrupt>:
30000200:	e24e1004 	sub	r1, lr, #4
30000204:	e5910000 	ldr	r0, [r1]
30000208:	ea000afc 	b	30002e00 <software_handle>
3000020c:	e1a00000 	nop			; (mov r0, r0)
30000210:	e1a00000 	nop			; (mov r0, r0)
30000214:	e1a00000 	nop			; (mov r0, r0)
30000218:	e1a00000 	nop			; (mov r0, r0)
3000021c:	e1a00000 	nop			; (mov r0, r0)

30000220 <prefetch_abort>:
30000220:	ebfffffe 	bl	30000220 <prefetch_abort>
30000224:	e1a00000 	nop			; (mov r0, r0)
30000228:	e1a00000 	nop			; (mov r0, r0)
3000022c:	e1a00000 	nop			; (mov r0, r0)
30000230:	e1a00000 	nop			; (mov r0, r0)
30000234:	e1a00000 	nop			; (mov r0, r0)
30000238:	e1a00000 	nop			; (mov r0, r0)
3000023c:	e1a00000 	nop			; (mov r0, r0)

30000240 <data_abort>:
30000240:	ebfffffe 	bl	30000240 <data_abort>
30000244:	e1a00000 	nop			; (mov r0, r0)
30000248:	e1a00000 	nop			; (mov r0, r0)
3000024c:	e1a00000 	nop			; (mov r0, r0)
30000250:	e1a00000 	nop			; (mov r0, r0)
30000254:	e1a00000 	nop			; (mov r0, r0)
30000258:	e1a00000 	nop			; (mov r0, r0)
3000025c:	e1a00000 	nop			; (mov r0, r0)

30000260 <not_used>:
30000260:	ebfffffe 	bl	30000260 <not_used>
30000264:	e1a00000 	nop			; (mov r0, r0)
30000268:	e1a00000 	nop			; (mov r0, r0)
3000026c:	e1a00000 	nop			; (mov r0, r0)
30000270:	e1a00000 	nop			; (mov r0, r0)
30000274:	e1a00000 	nop			; (mov r0, r0)
30000278:	e1a00000 	nop			; (mov r0, r0)
3000027c:	e1a00000 	nop			; (mov r0, r0)

30000280 <irq>:
30000280:	ebfffffe 	bl	30000280 <irq>
30000284:	e1a00000 	nop			; (mov r0, r0)
30000288:	e1a00000 	nop			; (mov r0, r0)
3000028c:	e1a00000 	nop			; (mov r0, r0)
30000290:	e1a00000 	nop			; (mov r0, r0)
30000294:	e1a00000 	nop			; (mov r0, r0)
30000298:	e1a00000 	nop			; (mov r0, r0)
3000029c:	e1a00000 	nop			; (mov r0, r0)

300002a0 <fiq>:
300002a0:	e24ee004 	sub	lr, lr, #4
300002a4:	e92d40ff 	push	{r0, r1, r2, r3, r4, r5, r6, r7, lr}
300002a8:	eb000ac9 	bl	30002dd4 <fiq_handle>
300002ac:	e8fd80ff 	ldm	sp!, {r0, r1, r2, r3, r4, r5, r6, r7, pc}^
300002b0:	4a000008 	bmi	300002d8 <fiq+0x38>
300002b4:	4a00001c 	bmi	3000032c <memset+0x2c>
300002b8:	00007fff 	strdeq	r7, [r0], -pc	; <UNPREDICTABLE>
300002bc:	4c000014 	stcmi	0, cr0, [r0], {20}
300002c0:	4c000008 	stcmi	0, cr0, [r0], {8}
300002c4:	00038022 	andeq	r8, r3, r2, lsr #32
300002c8:	4c000004 	stcmi	0, cr0, [r0], {4}
300002cc:	0005c041 	andeq	ip, r5, r1, asr #32
300002d0:	30000c04 	andcc	r0, r0, r4, lsl #24
300002d4:	33ff4800 	mvnscc	r4, #0, 16
300002d8:	30000104 	andcc	r0, r0, r4, lsl #2
300002dc:	3000010c 	andcc	r0, r0, ip, lsl #2
300002e0:	33ff5c00 	mvnscc	r5, #0, 24
300002e4:	33ff6000 	mvnscc	r6, #0
300002e8:	33ff7000 	mvnscc	r7, #0
300002ec:	33ff8000 	mvnscc	r8, #0
300002f0:	33ff5800 	mvnscc	r5, #0, 16
300002f4:	e1a00000 	nop			; (mov r0, r0)
300002f8:	e1a00000 	nop			; (mov r0, r0)
300002fc:	e1a00000 	nop			; (mov r0, r0)

30000300 <memset>:
30000300:	e3520000 	cmp	r2, #0
30000304:	012fff1e 	bxeq	lr
30000308:	e1a03000 	mov	r3, r0
3000030c:	e4c31001 	strb	r1, [r3], #1
30000310:	e0802002 	add	r2, r0, r2
30000314:	e1e0c000 	mvn	ip, r0
30000318:	e082c00c 	add	ip, r2, ip
3000031c:	e1530002 	cmp	r3, r2
30000320:	e20cc001 	and	ip, ip, #1
30000324:	012fff1e 	bxeq	lr
30000328:	e35c0000 	cmp	ip, #0
3000032c:	0a000002 	beq	3000033c <memset+0x3c>
30000330:	e4c31001 	strb	r1, [r3], #1
30000334:	e1530002 	cmp	r3, r2
30000338:	012fff1e 	bxeq	lr
3000033c:	e1a0c003 	mov	ip, r3
30000340:	e4cc1001 	strb	r1, [ip], #1
30000344:	e5c31001 	strb	r1, [r3, #1]
30000348:	e28c3001 	add	r3, ip, #1
3000034c:	e1530002 	cmp	r3, r2
30000350:	1afffff9 	bne	3000033c <memset+0x3c>
30000354:	e12fff1e 	bx	lr

30000358 <strlen>:
30000358:	e5d03000 	ldrb	r3, [r0]
3000035c:	e3530000 	cmp	r3, #0
30000360:	0a000004 	beq	30000378 <strlen+0x20>
30000364:	e3a03000 	mov	r3, #0
30000368:	e2833001 	add	r3, r3, #1
3000036c:	e7d02003 	ldrb	r2, [r0, r3]
30000370:	e3520000 	cmp	r2, #0
30000374:	1afffffb 	bne	30000368 <strlen+0x10>
30000378:	e1a00003 	mov	r0, r3
3000037c:	e12fff1e 	bx	lr

30000380 <strcpy>:
30000380:	e1a02000 	mov	r2, r0
30000384:	e4d13001 	ldrb	r3, [r1], #1
30000388:	e3530000 	cmp	r3, #0
3000038c:	e4c23001 	strb	r3, [r2], #1
30000390:	1afffffb 	bne	30000384 <strcpy+0x4>
30000394:	e12fff1e 	bx	lr

30000398 <__aeabi_uidiv>:
30000398:	e3510000 	cmp	r1, #0
3000039c:	0a00001f 	beq	30000420 <Ldiv0>
300003a0:	e3a03001 	mov	r3, #1
300003a4:	e3a02000 	mov	r2, #0
300003a8:	e1500001 	cmp	r0, r1
300003ac:	3a000019 	bcc	30000418 <Lgot_result>

300003b0 <Loop1>:
300003b0:	e3510201 	cmp	r1, #268435456	; 0x10000000
300003b4:	31510000 	cmpcc	r1, r0
300003b8:	31a01201 	lslcc	r1, r1, #4
300003bc:	31a03203 	lslcc	r3, r3, #4
300003c0:	3afffffa 	bcc	300003b0 <Loop1>

300003c4 <Lbignum>:
300003c4:	e3510102 	cmp	r1, #-2147483648	; 0x80000000
300003c8:	31510000 	cmpcc	r1, r0
300003cc:	31a01081 	lslcc	r1, r1, #1
300003d0:	31a03083 	lslcc	r3, r3, #1
300003d4:	3afffffa 	bcc	300003c4 <Lbignum>

300003d8 <Loop3>:
300003d8:	e1500001 	cmp	r0, r1
300003dc:	20400001 	subcs	r0, r0, r1
300003e0:	21822003 	orrcs	r2, r2, r3
300003e4:	e15000a1 	cmp	r0, r1, lsr #1
300003e8:	204000a1 	subcs	r0, r0, r1, lsr #1
300003ec:	218220a3 	orrcs	r2, r2, r3, lsr #1
300003f0:	e1500121 	cmp	r0, r1, lsr #2
300003f4:	20400121 	subcs	r0, r0, r1, lsr #2
300003f8:	21822123 	orrcs	r2, r2, r3, lsr #2
300003fc:	e15001a1 	cmp	r0, r1, lsr #3
30000400:	204001a1 	subcs	r0, r0, r1, lsr #3
30000404:	218221a3 	orrcs	r2, r2, r3, lsr #3
30000408:	e3500000 	cmp	r0, #0
3000040c:	11b03223 	lsrsne	r3, r3, #4
30000410:	11a01221 	lsrne	r1, r1, #4
30000414:	1affffef 	bne	300003d8 <Loop3>

30000418 <Lgot_result>:
30000418:	e1a00002 	mov	r0, r2
3000041c:	e1a0f00e 	mov	pc, lr

30000420 <Ldiv0>:
30000420:	e52de004 	push	{lr}		; (str lr, [sp, #-4]!)
30000424:	eb0000cd 	bl	30000760 <__div0>
30000428:	e3a00000 	mov	r0, #0
3000042c:	e49df004 	pop	{pc}		; (ldr pc, [sp], #4)

30000430 <__aeabi_uidivmod>:
30000430:	e92d5003 	push	{r0, r1, ip, lr}
30000434:	ebffffd7 	bl	30000398 <__aeabi_uidiv>
30000438:	e8bd5006 	pop	{r1, r2, ip, lr}
3000043c:	e0030290 	mul	r3, r0, r2
30000440:	e0411003 	sub	r1, r1, r3
30000444:	e1a0f00e 	mov	pc, lr

30000448 <__aeabi_idivmod>:
30000448:	e92d5003 	push	{r0, r1, ip, lr}
3000044c:	eb000073 	bl	30000620 <__aeabi_idiv>
30000450:	e8bd5006 	pop	{r1, r2, ip, lr}
30000454:	e0030290 	mul	r3, r0, r2
30000458:	e0411003 	sub	r1, r1, r3
3000045c:	e1a0f00e 	mov	pc, lr

30000460 <__modsi3>:
30000460:	e3510000 	cmp	r1, #0
30000464:	0a000032 	beq	30000534 <Ldiv0>
30000468:	42611000 	rsbmi	r1, r1, #0
3000046c:	e1b0c000 	movs	ip, r0
30000470:	42600000 	rsbmi	r0, r0, #0
30000474:	e2512001 	subs	r2, r1, #1
30000478:	11500001 	cmpne	r0, r1
3000047c:	03a00000 	moveq	r0, #0
30000480:	81110002 	tsthi	r1, r2
30000484:	00000002 	andeq	r0, r0, r2
30000488:	9a000026 	bls	30000528 <__modsi3+0xc8>
3000048c:	e3a02000 	mov	r2, #0
30000490:	e3510201 	cmp	r1, #268435456	; 0x10000000
30000494:	31510000 	cmpcc	r1, r0
30000498:	31a01201 	lslcc	r1, r1, #4
3000049c:	32822004 	addcc	r2, r2, #4
300004a0:	3afffffa 	bcc	30000490 <__modsi3+0x30>
300004a4:	e3510102 	cmp	r1, #-2147483648	; 0x80000000
300004a8:	31510000 	cmpcc	r1, r0
300004ac:	31a01081 	lslcc	r1, r1, #1
300004b0:	32822001 	addcc	r2, r2, #1
300004b4:	3afffffa 	bcc	300004a4 <__modsi3+0x44>
300004b8:	e2522003 	subs	r2, r2, #3
300004bc:	ba00000e 	blt	300004fc <__modsi3+0x9c>
300004c0:	e1500001 	cmp	r0, r1
300004c4:	20400001 	subcs	r0, r0, r1
300004c8:	e15000a1 	cmp	r0, r1, lsr #1
300004cc:	204000a1 	subcs	r0, r0, r1, lsr #1
300004d0:	e1500121 	cmp	r0, r1, lsr #2
300004d4:	20400121 	subcs	r0, r0, r1, lsr #2
300004d8:	e15001a1 	cmp	r0, r1, lsr #3
300004dc:	204001a1 	subcs	r0, r0, r1, lsr #3
300004e0:	e3500001 	cmp	r0, #1
300004e4:	e1a01221 	lsr	r1, r1, #4
300004e8:	a2522004 	subsge	r2, r2, #4
300004ec:	aafffff3 	bge	300004c0 <__modsi3+0x60>
300004f0:	e3120003 	tst	r2, #3
300004f4:	13300000 	teqne	r0, #0
300004f8:	0a00000a 	beq	30000528 <__modsi3+0xc8>
300004fc:	e3720002 	cmn	r2, #2
30000500:	ba000006 	blt	30000520 <__modsi3+0xc0>
30000504:	0a000002 	beq	30000514 <__modsi3+0xb4>
30000508:	e1500001 	cmp	r0, r1
3000050c:	20400001 	subcs	r0, r0, r1
30000510:	e1a010a1 	lsr	r1, r1, #1
30000514:	e1500001 	cmp	r0, r1
30000518:	20400001 	subcs	r0, r0, r1
3000051c:	e1a010a1 	lsr	r1, r1, #1
30000520:	e1500001 	cmp	r0, r1
30000524:	20400001 	subcs	r0, r0, r1
30000528:	e35c0000 	cmp	ip, #0
3000052c:	42600000 	rsbmi	r0, r0, #0
30000530:	e1a0f00e 	mov	pc, lr

30000534 <Ldiv0>:
30000534:	e52de004 	push	{lr}		; (str lr, [sp, #-4]!)
30000538:	eb000088 	bl	30000760 <__div0>
3000053c:	e3a00000 	mov	r0, #0
30000540:	e49df004 	pop	{pc}		; (ldr pc, [sp], #4)
30000544:	e1a00000 	nop			; (mov r0, r0)
30000548:	e1a00000 	nop			; (mov r0, r0)
3000054c:	e1a00000 	nop			; (mov r0, r0)
30000550:	e1a00000 	nop			; (mov r0, r0)
30000554:	e1a00000 	nop			; (mov r0, r0)
30000558:	e1a00000 	nop			; (mov r0, r0)
3000055c:	e1a00000 	nop			; (mov r0, r0)

30000560 <__umodsi3>:
30000560:	e3510000 	cmp	r1, #0
30000564:	0a000026 	beq	30000604 <Ldiv0>
30000568:	e3a03001 	mov	r3, #1
3000056c:	e1500001 	cmp	r0, r1
30000570:	31a0f00e 	movcc	pc, lr

30000574 <Loop1>:
30000574:	e3510201 	cmp	r1, #268435456	; 0x10000000
30000578:	31510000 	cmpcc	r1, r0
3000057c:	31a01201 	lslcc	r1, r1, #4
30000580:	31a03203 	lslcc	r3, r3, #4
30000584:	3afffffa 	bcc	30000574 <Loop1>

30000588 <Lbignum>:
30000588:	e3510102 	cmp	r1, #-2147483648	; 0x80000000
3000058c:	31510000 	cmpcc	r1, r0
30000590:	31a01081 	lslcc	r1, r1, #1
30000594:	31a03083 	lslcc	r3, r3, #1
30000598:	3afffffa 	bcc	30000588 <Lbignum>

3000059c <Loop3>:
3000059c:	e3a02000 	mov	r2, #0
300005a0:	e1500001 	cmp	r0, r1
300005a4:	20400001 	subcs	r0, r0, r1
300005a8:	e15000a1 	cmp	r0, r1, lsr #1
300005ac:	204000a1 	subcs	r0, r0, r1, lsr #1
300005b0:	218220e3 	orrcs	r2, r2, r3, ror #1
300005b4:	e1500121 	cmp	r0, r1, lsr #2
300005b8:	20400121 	subcs	r0, r0, r1, lsr #2
300005bc:	21822163 	orrcs	r2, r2, r3, ror #2
300005c0:	e15001a1 	cmp	r0, r1, lsr #3
300005c4:	204001a1 	subcs	r0, r0, r1, lsr #3
300005c8:	218221e3 	orrcs	r2, r2, r3, ror #3
300005cc:	e1a0c003 	mov	ip, r3
300005d0:	e3500000 	cmp	r0, #0
300005d4:	11b03223 	lsrsne	r3, r3, #4
300005d8:	11a01221 	lsrne	r1, r1, #4
300005dc:	1affffee 	bne	3000059c <Loop3>
300005e0:	e212220e 	ands	r2, r2, #-536870912	; 0xe0000000
300005e4:	01a0f00e 	moveq	pc, lr
300005e8:	e11201ec 	tst	r2, ip, ror #3
300005ec:	108001a1 	addne	r0, r0, r1, lsr #3
300005f0:	e112016c 	tst	r2, ip, ror #2
300005f4:	10800121 	addne	r0, r0, r1, lsr #2
300005f8:	e11200ec 	tst	r2, ip, ror #1
300005fc:	108000a1 	addne	r0, r0, r1, lsr #1
30000600:	e1a0f00e 	mov	pc, lr

30000604 <Ldiv0>:
30000604:	e52de004 	push	{lr}		; (str lr, [sp, #-4]!)
30000608:	eb000054 	bl	30000760 <__div0>
3000060c:	e3a00000 	mov	r0, #0
30000610:	e49df004 	pop	{pc}		; (ldr pc, [sp], #4)
	...

30000620 <__aeabi_idiv>:
30000620:	e3510000 	cmp	r1, #0
30000624:	e020c001 	eor	ip, r0, r1
30000628:	0a000042 	beq	30000738 <Ldiv0>
3000062c:	42611000 	rsbmi	r1, r1, #0
30000630:	e2512001 	subs	r2, r1, #1
30000634:	0a000027 	beq	300006d8 <__aeabi_idiv+0xb8>
30000638:	e1b03000 	movs	r3, r0
3000063c:	42603000 	rsbmi	r3, r0, #0
30000640:	e1530001 	cmp	r3, r1
30000644:	9a000026 	bls	300006e4 <__aeabi_idiv+0xc4>
30000648:	e1110002 	tst	r1, r2
3000064c:	0a000028 	beq	300006f4 <__aeabi_idiv+0xd4>
30000650:	e311020e 	tst	r1, #-536870912	; 0xe0000000
30000654:	01a01181 	lsleq	r1, r1, #3
30000658:	03a02008 	moveq	r2, #8
3000065c:	13a02001 	movne	r2, #1
30000660:	e3510201 	cmp	r1, #268435456	; 0x10000000
30000664:	31510003 	cmpcc	r1, r3
30000668:	31a01201 	lslcc	r1, r1, #4
3000066c:	31a02202 	lslcc	r2, r2, #4
30000670:	3afffffa 	bcc	30000660 <__aeabi_idiv+0x40>
30000674:	e3510102 	cmp	r1, #-2147483648	; 0x80000000
30000678:	31510003 	cmpcc	r1, r3
3000067c:	31a01081 	lslcc	r1, r1, #1
30000680:	31a02082 	lslcc	r2, r2, #1
30000684:	3afffffa 	bcc	30000674 <__aeabi_idiv+0x54>
30000688:	e3a00000 	mov	r0, #0
3000068c:	e1530001 	cmp	r3, r1
30000690:	20433001 	subcs	r3, r3, r1
30000694:	21800002 	orrcs	r0, r0, r2
30000698:	e15300a1 	cmp	r3, r1, lsr #1
3000069c:	204330a1 	subcs	r3, r3, r1, lsr #1
300006a0:	218000a2 	orrcs	r0, r0, r2, lsr #1
300006a4:	e1530121 	cmp	r3, r1, lsr #2
300006a8:	20433121 	subcs	r3, r3, r1, lsr #2
300006ac:	21800122 	orrcs	r0, r0, r2, lsr #2
300006b0:	e15301a1 	cmp	r3, r1, lsr #3
300006b4:	204331a1 	subcs	r3, r3, r1, lsr #3
300006b8:	218001a2 	orrcs	r0, r0, r2, lsr #3
300006bc:	e3530000 	cmp	r3, #0
300006c0:	11b02222 	lsrsne	r2, r2, #4
300006c4:	11a01221 	lsrne	r1, r1, #4
300006c8:	1affffef 	bne	3000068c <__aeabi_idiv+0x6c>
300006cc:	e35c0000 	cmp	ip, #0
300006d0:	42600000 	rsbmi	r0, r0, #0
300006d4:	e1a0f00e 	mov	pc, lr
300006d8:	e13c0000 	teq	ip, r0
300006dc:	42600000 	rsbmi	r0, r0, #0
300006e0:	e1a0f00e 	mov	pc, lr
300006e4:	33a00000 	movcc	r0, #0
300006e8:	01a00fcc 	asreq	r0, ip, #31
300006ec:	03800001 	orreq	r0, r0, #1
300006f0:	e1a0f00e 	mov	pc, lr
300006f4:	e3510801 	cmp	r1, #65536	; 0x10000
300006f8:	21a01821 	lsrcs	r1, r1, #16
300006fc:	23a02010 	movcs	r2, #16
30000700:	33a02000 	movcc	r2, #0
30000704:	e3510c01 	cmp	r1, #256	; 0x100
30000708:	21a01421 	lsrcs	r1, r1, #8
3000070c:	22822008 	addcs	r2, r2, #8
30000710:	e3510010 	cmp	r1, #16
30000714:	21a01221 	lsrcs	r1, r1, #4
30000718:	22822004 	addcs	r2, r2, #4
3000071c:	e3510004 	cmp	r1, #4
30000720:	82822003 	addhi	r2, r2, #3
30000724:	908220a1 	addls	r2, r2, r1, lsr #1
30000728:	e35c0000 	cmp	ip, #0
3000072c:	e1a00233 	lsr	r0, r3, r2
30000730:	42600000 	rsbmi	r0, r0, #0
30000734:	e1a0f00e 	mov	pc, lr

30000738 <Ldiv0>:
30000738:	e52de004 	push	{lr}		; (str lr, [sp, #-4]!)
3000073c:	eb000007 	bl	30000760 <__div0>
30000740:	e3a00000 	mov	r0, #0
30000744:	e49df004 	pop	{pc}		; (ldr pc, [sp], #4)
30000748:	e1a00000 	nop			; (mov r0, r0)
3000074c:	e1a00000 	nop			; (mov r0, r0)
30000750:	e1a00000 	nop			; (mov r0, r0)
30000754:	e1a00000 	nop			; (mov r0, r0)
30000758:	e1a00000 	nop			; (mov r0, r0)
3000075c:	e1a00000 	nop			; (mov r0, r0)

30000760 <__div0>:
30000760:	e12fff1e 	bx	lr

30000764 <NF_Reset>:
30000764:	e3a0244e 	mov	r2, #1308622848	; 0x4e000000
30000768:	e5923004 	ldr	r3, [r2, #4]
3000076c:	e3c3c002 	bic	ip, r3, #2
30000770:	e582c004 	str	ip, [r2, #4]
30000774:	e5921020 	ldr	r1, [r2, #32]
30000778:	e3a030ff 	mov	r3, #255	; 0xff
3000077c:	e3810004 	orr	r0, r1, #4
30000780:	e5820020 	str	r0, [r2, #32]
30000784:	e5823008 	str	r3, [r2, #8]
30000788:	e5920020 	ldr	r0, [r2, #32]
3000078c:	e3100004 	tst	r0, #4
30000790:	e3a0344e 	mov	r3, #1308622848	; 0x4e000000
30000794:	0afffffb 	beq	30000788 <NF_Reset+0x24>
30000798:	e5931004 	ldr	r1, [r3, #4]
3000079c:	e3812002 	orr	r2, r1, #2
300007a0:	e5832004 	str	r2, [r3, #4]
300007a4:	e12fff1e 	bx	lr

300007a8 <NF_Init>:
300007a8:	e3a03456 	mov	r3, #1442840576	; 0x56000000
300007ac:	e5931000 	ldr	r1, [r3]
300007b0:	e3c1287e 	bic	r2, r1, #8257536	; 0x7e0000
300007b4:	e5832000 	str	r2, [r3]
300007b8:	e5930000 	ldr	r0, [r3]
300007bc:	e380c87e 	orr	ip, r0, #8257536	; 0x7e0000
300007c0:	e583c000 	str	ip, [r3]
300007c4:	e3a0244e 	mov	r2, #1308622848	; 0x4e000000
300007c8:	e3a01b05 	mov	r1, #5120	; 0x1400
300007cc:	e3a00001 	mov	r0, #1
300007d0:	e3a03000 	mov	r3, #0
300007d4:	e5821000 	str	r1, [r2]
300007d8:	e5820004 	str	r0, [r2, #4]
300007dc:	e5823020 	str	r3, [r2, #32]
300007e0:	eaffffdf 	b	30000764 <NF_Reset>

300007e4 <NF_ReadPage>:
300007e4:	e92d4038 	push	{r3, r4, r5, lr}
300007e8:	e0814300 	add	r4, r1, r0, lsl #6
300007ec:	e1a05002 	mov	r5, r2
300007f0:	ebffffdb 	bl	30000764 <NF_Reset>
300007f4:	e3a0344e 	mov	r3, #1308622848	; 0x4e000000
300007f8:	e5931004 	ldr	r1, [r3, #4]
300007fc:	e3c12002 	bic	r2, r1, #2
30000800:	e5832004 	str	r2, [r3, #4]
30000804:	e593c020 	ldr	ip, [r3, #32]
30000808:	e3a02000 	mov	r2, #0
3000080c:	e1a00424 	lsr	r0, r4, #8
30000810:	e1a01824 	lsr	r1, r4, #16
30000814:	e38cc004 	orr	ip, ip, #4
30000818:	e583c020 	str	ip, [r3, #32]
3000081c:	e20440ff 	and	r4, r4, #255	; 0xff
30000820:	e5832008 	str	r2, [r3, #8]
30000824:	e20000ff 	and	r0, r0, #255	; 0xff
30000828:	e583200c 	str	r2, [r3, #12]
3000082c:	e2011001 	and	r1, r1, #1
30000830:	e583200c 	str	r2, [r3, #12]
30000834:	e3a02030 	mov	r2, #48	; 0x30
30000838:	e583400c 	str	r4, [r3, #12]
3000083c:	e583000c 	str	r0, [r3, #12]
30000840:	e583100c 	str	r1, [r3, #12]
30000844:	e5832008 	str	r2, [r3, #8]
30000848:	e1a02003 	mov	r2, r3
3000084c:	e592e020 	ldr	lr, [r2, #32]
30000850:	e31e0004 	tst	lr, #4
30000854:	0afffffc 	beq	3000084c <NF_ReadPage+0x68>
30000858:	e3a03000 	mov	r3, #0
3000085c:	e3a0044e 	mov	r0, #1308622848	; 0x4e000000
30000860:	e5d0c010 	ldrb	ip, [r0, #16]
30000864:	e7c5c003 	strb	ip, [r5, r3]
30000868:	e2831001 	add	r1, r3, #1
3000086c:	e5d02010 	ldrb	r2, [r0, #16]
30000870:	e2833002 	add	r3, r3, #2
30000874:	e3530b02 	cmp	r3, #2048	; 0x800
30000878:	e3a0c44e 	mov	ip, #1308622848	; 0x4e000000
3000087c:	e7c52001 	strb	r2, [r5, r1]
30000880:	1afffff6 	bne	30000860 <NF_ReadPage+0x7c>
30000884:	e59c0004 	ldr	r0, [ip, #4]
30000888:	e3803002 	orr	r3, r0, #2
3000088c:	e58c3004 	str	r3, [ip, #4]
30000890:	e8bd4038 	pop	{r3, r4, r5, lr}
30000894:	e12fff1e 	bx	lr

30000898 <RdNF2SDRAM>:
30000898:	e92d4070 	push	{r4, r5, r6, lr}
3000089c:	ebffffc1 	bl	300007a8 <NF_Init>
300008a0:	e3a04000 	mov	r4, #0
300008a4:	e3a03203 	mov	r3, #805306368	; 0x30000000
300008a8:	e1a02003 	mov	r2, r3
300008ac:	e2836b02 	add	r6, r3, #2048	; 0x800
300008b0:	e1a00324 	lsr	r0, r4, #6
300008b4:	e204103f 	and	r1, r4, #63	; 0x3f
300008b8:	e2845001 	add	r5, r4, #1
300008bc:	ebffffc8 	bl	300007e4 <NF_ReadPage>
300008c0:	e2844002 	add	r4, r4, #2
300008c4:	e1a00325 	lsr	r0, r5, #6
300008c8:	e205103f 	and	r1, r5, #63	; 0x3f
300008cc:	e1a02006 	mov	r2, r6
300008d0:	ebffffc3 	bl	300007e4 <NF_ReadPage>
300008d4:	e3540c02 	cmp	r4, #512	; 0x200
300008d8:	e2863b02 	add	r3, r6, #2048	; 0x800
300008dc:	1afffff1 	bne	300008a8 <RdNF2SDRAM+0x10>
300008e0:	e8bd4070 	pop	{r4, r5, r6, lr}
300008e4:	e12fff1e 	bx	lr

300008e8 <NF_WritePage>:
300008e8:	e92d4038 	push	{r3, r4, r5, lr}
300008ec:	e0814300 	add	r4, r1, r0, lsl #6
300008f0:	e1a05002 	mov	r5, r2
300008f4:	ebffff9a 	bl	30000764 <NF_Reset>
300008f8:	e3a0144e 	mov	r1, #1308622848	; 0x4e000000
300008fc:	e5912004 	ldr	r2, [r1, #4]
30000900:	e3c23002 	bic	r3, r2, #2
30000904:	e5813004 	str	r3, [r1, #4]
30000908:	e591c020 	ldr	ip, [r1, #32]
3000090c:	e1a00424 	lsr	r0, r4, #8
30000910:	e1a02824 	lsr	r2, r4, #16
30000914:	e38cc004 	orr	ip, ip, #4
30000918:	e581c020 	str	ip, [r1, #32]
3000091c:	e3a03000 	mov	r3, #0
30000920:	e2022001 	and	r2, r2, #1
30000924:	e3a0c080 	mov	ip, #128	; 0x80
30000928:	e20440ff 	and	r4, r4, #255	; 0xff
3000092c:	e20000ff 	and	r0, r0, #255	; 0xff
30000930:	e581c008 	str	ip, [r1, #8]
30000934:	e581300c 	str	r3, [r1, #12]
30000938:	e285cb02 	add	ip, r5, #2048	; 0x800
3000093c:	e581300c 	str	r3, [r1, #12]
30000940:	e581400c 	str	r4, [r1, #12]
30000944:	e581000c 	str	r0, [r1, #12]
30000948:	e581200c 	str	r2, [r1, #12]
3000094c:	e1a02005 	mov	r2, r5
30000950:	e1a03002 	mov	r3, r2
30000954:	e4d30001 	ldrb	r0, [r3], #1
30000958:	e5c10010 	strb	r0, [r1, #16]
3000095c:	e5d2e001 	ldrb	lr, [r2, #1]
30000960:	e2832001 	add	r2, r3, #1
30000964:	e152000c 	cmp	r2, ip
30000968:	e3a0344e 	mov	r3, #1308622848	; 0x4e000000
3000096c:	e5c1e010 	strb	lr, [r1, #16]
30000970:	1afffff6 	bne	30000950 <NF_WritePage+0x68>
30000974:	e3a01010 	mov	r1, #16
30000978:	e5831008 	str	r1, [r3, #8]
3000097c:	e593c020 	ldr	ip, [r3, #32]
30000980:	e31c0004 	tst	ip, #4
30000984:	e3a0244e 	mov	r2, #1308622848	; 0x4e000000
30000988:	0afffffb 	beq	3000097c <NF_WritePage+0x94>
3000098c:	e5923004 	ldr	r3, [r2, #4]
30000990:	e383e002 	orr	lr, r3, #2
30000994:	e582e004 	str	lr, [r2, #4]
30000998:	e8bd4038 	pop	{r3, r4, r5, lr}
3000099c:	e12fff1e 	bx	lr

300009a0 <NF_EraseBlock>:
300009a0:	e92d4010 	push	{r4, lr}
300009a4:	e1a04300 	lsl	r4, r0, #6
300009a8:	ebffff6d 	bl	30000764 <NF_Reset>
300009ac:	e3a0344e 	mov	r3, #1308622848	; 0x4e000000
300009b0:	e5932004 	ldr	r2, [r3, #4]
300009b4:	e3c20002 	bic	r0, r2, #2
300009b8:	e5830004 	str	r0, [r3, #4]
300009bc:	e5931020 	ldr	r1, [r3, #32]
300009c0:	e1a0c424 	lsr	ip, r4, #8
300009c4:	e1a02824 	lsr	r2, r4, #16
300009c8:	e3810004 	orr	r0, r1, #4
300009cc:	e5830020 	str	r0, [r3, #32]
300009d0:	e20c10ff 	and	r1, ip, #255	; 0xff
300009d4:	e20440ff 	and	r4, r4, #255	; 0xff
300009d8:	e202c0ff 	and	ip, r2, #255	; 0xff
300009dc:	e3a00060 	mov	r0, #96	; 0x60
300009e0:	e3a020d0 	mov	r2, #208	; 0xd0
300009e4:	e5830008 	str	r0, [r3, #8]
300009e8:	e583400c 	str	r4, [r3, #12]
300009ec:	e583100c 	str	r1, [r3, #12]
300009f0:	e583c00c 	str	ip, [r3, #12]
300009f4:	e5832008 	str	r2, [r3, #8]
300009f8:	e1a01003 	mov	r1, r3
300009fc:	e591e020 	ldr	lr, [r1, #32]
30000a00:	e31e0004 	tst	lr, #4
30000a04:	e3a0244e 	mov	r2, #1308622848	; 0x4e000000
30000a08:	0afffffb 	beq	300009fc <NF_EraseBlock+0x5c>
30000a0c:	e592c004 	ldr	ip, [r2, #4]
30000a10:	e38c3002 	orr	r3, ip, #2
30000a14:	e5823004 	str	r3, [r2, #4]
30000a18:	e3a00001 	mov	r0, #1
30000a1c:	e8bd4010 	pop	{r4, lr}
30000a20:	e12fff1e 	bx	lr

30000a24 <uart0_init>:
30000a24:	e92d4038 	push	{r3, r4, r5, lr}
30000a28:	e3a0e456 	mov	lr, #1442840576	; 0x56000000
30000a2c:	e59e4070 	ldr	r4, [lr, #112]	; 0x70
30000a30:	e3c410f0 	bic	r1, r4, #240	; 0xf0
30000a34:	e58e1070 	str	r1, [lr, #112]	; 0x70
30000a38:	e59e2070 	ldr	r2, [lr, #112]	; 0x70
30000a3c:	e3a04000 	mov	r4, #0
30000a40:	e3a05205 	mov	r5, #1342177280	; 0x50000000
30000a44:	e38230a0 	orr	r3, r2, #160	; 0xa0
30000a48:	e3a0c003 	mov	ip, #3
30000a4c:	e3a02005 	mov	r2, #5
30000a50:	e58e3070 	str	r3, [lr, #112]	; 0x70
30000a54:	e1a01200 	lsl	r1, r0, #4
30000a58:	e58e4078 	str	r4, [lr, #120]	; 0x78
30000a5c:	e59f002c 	ldr	r0, [pc, #44]	; 30000a90 <uart0_init+0x6c>
30000a60:	e585c000 	str	ip, [r5]
30000a64:	e5852004 	str	r2, [r5, #4]
30000a68:	e5854008 	str	r4, [r5, #8]
30000a6c:	e585400c 	str	r4, [r5, #12]
30000a70:	ebfffe48 	bl	30000398 <__aeabi_uidiv>
30000a74:	e59f3018 	ldr	r3, [pc, #24]	; 30000a94 <uart0_init+0x70>
30000a78:	e2400001 	sub	r0, r0, #1
30000a7c:	e5850028 	str	r0, [r5, #40]	; 0x28
30000a80:	e5c34000 	strb	r4, [r3]
30000a84:	e5c34001 	strb	r4, [r3, #1]
30000a88:	e8bd4038 	pop	{r3, r4, r5, lr}
30000a8c:	e12fff1e 	bx	lr
30000a90:	02faf080 	rscseq	pc, sl, #128	; 0x80
30000a94:	30005974 	andcc	r5, r0, r4, ror r9

30000a98 <uart0_putc>:
30000a98:	e52d4004 	push	{r4}		; (str r4, [sp, #-4]!)
30000a9c:	e59f1060 	ldr	r1, [pc, #96]	; 30000b04 <uart0_putc+0x6c>
30000aa0:	e5d13000 	ldrb	r3, [r1]
30000aa4:	e5d12001 	ldrb	r2, [r1, #1]
30000aa8:	e1520003 	cmp	r2, r3
30000aac:	0a000012 	beq	30000afc <uart0_putc+0x64>
30000ab0:	e59fc050 	ldr	ip, [pc, #80]	; 30000b08 <uart0_putc+0x70>
30000ab4:	e3a04000 	mov	r4, #0
30000ab8:	e3a02205 	mov	r2, #1342177280	; 0x50000000
30000abc:	e3530040 	cmp	r3, #64	; 0x40
30000ac0:	15d13000 	ldrbne	r3, [r1]
30000ac4:	03a03000 	moveq	r3, #0
30000ac8:	e7dc3003 	ldrb	r3, [ip, r3]
30000acc:	05c14000 	strbeq	r4, [r1]
30000ad0:	e5c23020 	strb	r3, [r2, #32]
30000ad4:	e5920010 	ldr	r0, [r2, #16]
30000ad8:	e3100004 	tst	r0, #4
30000adc:	0afffffc 	beq	30000ad4 <uart0_putc+0x3c>
30000ae0:	e5d13000 	ldrb	r3, [r1]
30000ae4:	e5d10001 	ldrb	r0, [r1, #1]
30000ae8:	e2833001 	add	r3, r3, #1
30000aec:	e20330ff 	and	r3, r3, #255	; 0xff
30000af0:	e1500003 	cmp	r0, r3
30000af4:	e5c13000 	strb	r3, [r1]
30000af8:	1affffef 	bne	30000abc <uart0_putc+0x24>
30000afc:	e49d4004 	pop	{r4}		; (ldr r4, [sp], #4)
30000b00:	e12fff1e 	bx	lr
30000b04:	30005974 	andcc	r5, r0, r4, ror r9
30000b08:	300058ec 	andcc	r5, r0, ip, ror #17

30000b0c <putc_string>:
30000b0c:	e92d4010 	push	{r4, lr}
30000b10:	e1a04000 	mov	r4, r0
30000b14:	ebfffe0f 	bl	30000358 <strlen>
30000b18:	e3500000 	cmp	r0, #0
30000b1c:	0a000009 	beq	30000b48 <putc_string+0x3c>
30000b20:	e3a01000 	mov	r1, #0
30000b24:	e3a02205 	mov	r2, #1342177280	; 0x50000000
30000b28:	e7d43001 	ldrb	r3, [r4, r1]
30000b2c:	e5c23020 	strb	r3, [r2, #32]
30000b30:	e592c010 	ldr	ip, [r2, #16]
30000b34:	e31c0004 	tst	ip, #4
30000b38:	0afffffc 	beq	30000b30 <putc_string+0x24>
30000b3c:	e2811001 	add	r1, r1, #1
30000b40:	e1510000 	cmp	r1, r0
30000b44:	1afffff7 	bne	30000b28 <putc_string+0x1c>
30000b48:	e8bd4010 	pop	{r4, lr}
30000b4c:	e12fff1e 	bx	lr

30000b50 <num_to_char>:
30000b50:	e92d01f0 	push	{r4, r5, r6, r7, r8}
30000b54:	e59f30a4 	ldr	r3, [pc, #164]	; 30000c00 <num_to_char+0xb0>
30000b58:	e1a0c001 	mov	ip, r1
30000b5c:	e1a04000 	mov	r4, r0
30000b60:	e24dd014 	sub	sp, sp, #20
30000b64:	e893000f 	ldm	r3, {r0, r1, r2, r3}
30000b68:	e1a0800d 	mov	r8, sp
30000b6c:	e888000f 	stm	r8, {r0, r1, r2, r3}
30000b70:	e204700f 	and	r7, r4, #15
30000b74:	e28d8010 	add	r8, sp, #16
30000b78:	e1a06c04 	lsl	r6, r4, #24
30000b7c:	e1a05a04 	lsl	r5, r4, #20
30000b80:	e1a00804 	lsl	r0, r4, #16
30000b84:	e1a01604 	lsl	r1, r4, #12
30000b88:	e1a02404 	lsl	r2, r4, #8
30000b8c:	e1a03204 	lsl	r3, r4, #4
30000b90:	e0886e26 	add	r6, r8, r6, lsr #28
30000b94:	e0885e25 	add	r5, r8, r5, lsr #28
30000b98:	e0880e20 	add	r0, r8, r0, lsr #28
30000b9c:	e0881e21 	add	r1, r8, r1, lsr #28
30000ba0:	e0882e22 	add	r2, r8, r2, lsr #28
30000ba4:	e0883e23 	add	r3, r8, r3, lsr #28
30000ba8:	e0884e24 	add	r4, r8, r4, lsr #28
30000bac:	e0887007 	add	r7, r8, r7
30000bb0:	e5578010 	ldrb	r8, [r7, #-16]
30000bb4:	e5567010 	ldrb	r7, [r6, #-16]
30000bb8:	e5556010 	ldrb	r6, [r5, #-16]
30000bbc:	e5505010 	ldrb	r5, [r0, #-16]
30000bc0:	e5510010 	ldrb	r0, [r1, #-16]
30000bc4:	e5521010 	ldrb	r1, [r2, #-16]
30000bc8:	e5532010 	ldrb	r2, [r3, #-16]
30000bcc:	e5543010 	ldrb	r3, [r4, #-16]
30000bd0:	e5cc0005 	strb	r0, [ip, #5]
30000bd4:	e5cc8009 	strb	r8, [ip, #9]
30000bd8:	e5cc7008 	strb	r7, [ip, #8]
30000bdc:	e5cc6007 	strb	r6, [ip, #7]
30000be0:	e5cc5006 	strb	r5, [ip, #6]
30000be4:	e5cc1004 	strb	r1, [ip, #4]
30000be8:	e5cc2003 	strb	r2, [ip, #3]
30000bec:	e5cc3002 	strb	r3, [ip, #2]
30000bf0:	e3a00000 	mov	r0, #0
30000bf4:	e28dd014 	add	sp, sp, #20
30000bf8:	e8bd01f0 	pop	{r4, r5, r6, r7, r8}
30000bfc:	e12fff1e 	bx	lr
30000c00:	30005578 	andcc	r5, r0, r8, ror r5

30000c04 <_main>:
30000c04:	e92d4010 	push	{r4, lr}
30000c08:	e59f4074 	ldr	r4, [pc, #116]	; 30000c84 <_main+0x80>
30000c0c:	eb000025 	bl	30000ca8 <led_init>
30000c10:	e59f0070 	ldr	r0, [pc, #112]	; 30000c88 <_main+0x84>
30000c14:	ebffff82 	bl	30000a24 <uart0_init>
30000c18:	e1a00004 	mov	r0, r4
30000c1c:	ebffffba 	bl	30000b0c <putc_string>
30000c20:	e59f0064 	ldr	r0, [pc, #100]	; 30000c8c <_main+0x88>
30000c24:	ebffffb8 	bl	30000b0c <putc_string>
30000c28:	e59f0060 	ldr	r0, [pc, #96]	; 30000c90 <_main+0x8c>
30000c2c:	ebffffb6 	bl	30000b0c <putc_string>
30000c30:	eb00082b 	bl	30002ce4 <irq_init>
30000c34:	e1a00004 	mov	r0, r4
30000c38:	ebffffb3 	bl	30000b0c <putc_string>
30000c3c:	e59f0050 	ldr	r0, [pc, #80]	; 30000c94 <_main+0x90>
30000c40:	ebffffb1 	bl	30000b0c <putc_string>
30000c44:	e59f004c 	ldr	r0, [pc, #76]	; 30000c98 <_main+0x94>
30000c48:	ebffffaf 	bl	30000b0c <putc_string>
30000c4c:	e59f0048 	ldr	r0, [pc, #72]	; 30000c9c <_main+0x98>
30000c50:	ebffffad 	bl	30000b0c <putc_string>
30000c54:	eb000534 	bl	3000212c <timer4_init>
30000c58:	e1a00004 	mov	r0, r4
30000c5c:	ebffffaa 	bl	30000b0c <putc_string>
30000c60:	e59f0038 	ldr	r0, [pc, #56]	; 30000ca0 <_main+0x9c>
30000c64:	ebffffa8 	bl	30000b0c <putc_string>
30000c68:	e1a00004 	mov	r0, r4
30000c6c:	ebffffa6 	bl	30000b0c <putc_string>
30000c70:	e59f002c 	ldr	r0, [pc, #44]	; 30000ca4 <_main+0xa0>
30000c74:	ebffffa4 	bl	30000b0c <putc_string>
30000c78:	e3a00000 	mov	r0, #0
30000c7c:	e8bd4010 	pop	{r4, lr}
30000c80:	e12fff1e 	bx	lr
30000c84:	300056b8 			; <UNDEFINED> instruction: 0x300056b8
30000c88:	0001c200 	andeq	ip, r1, r0, lsl #4
30000c8c:	3000569c 	mulcc	r0, ip, r6
30000c90:	300056bc 			; <UNDEFINED> instruction: 0x300056bc
30000c94:	300056e0 	andcc	r5, r0, r0, ror #13
30000c98:	300056fc 	strdcc	r5, [r0], -ip
30000c9c:	3000571c 	andcc	r5, r0, ip, lsl r7
30000ca0:	30005740 	andcc	r5, r0, r0, asr #14
30000ca4:	3000576c 	andcc	r5, r0, ip, ror #14

30000ca8 <led_init>:
30000ca8:	e3a03456 	mov	r3, #1442840576	; 0x56000000
30000cac:	e5932010 	ldr	r2, [r3, #16]
30000cb0:	e3c2cb03 	bic	ip, r2, #3072	; 0xc00
30000cb4:	e583c010 	str	ip, [r3, #16]
30000cb8:	e5931010 	ldr	r1, [r3, #16]
30000cbc:	e3810b01 	orr	r0, r1, #1024	; 0x400
30000cc0:	e5830010 	str	r0, [r3, #16]
30000cc4:	e5932010 	ldr	r2, [r3, #16]
30000cc8:	e3c2ca03 	bic	ip, r2, #12288	; 0x3000
30000ccc:	e583c010 	str	ip, [r3, #16]
30000cd0:	e5931010 	ldr	r1, [r3, #16]
30000cd4:	e3810a01 	orr	r0, r1, #4096	; 0x1000
30000cd8:	e5830010 	str	r0, [r3, #16]
30000cdc:	e5932010 	ldr	r2, [r3, #16]
30000ce0:	e3c2c903 	bic	ip, r2, #49152	; 0xc000
30000ce4:	e583c010 	str	ip, [r3, #16]
30000ce8:	e5931010 	ldr	r1, [r3, #16]
30000cec:	e3810901 	orr	r0, r1, #16384	; 0x4000
30000cf0:	e5830010 	str	r0, [r3, #16]
30000cf4:	e5932010 	ldr	r2, [r3, #16]
30000cf8:	e3c2c803 	bic	ip, r2, #196608	; 0x30000
30000cfc:	e583c010 	str	ip, [r3, #16]
30000d00:	e5931010 	ldr	r1, [r3, #16]
30000d04:	e3810801 	orr	r0, r1, #65536	; 0x10000
30000d08:	e5830010 	str	r0, [r3, #16]
30000d0c:	e5932018 	ldr	r2, [r3, #24]
30000d10:	e3a02000 	mov	r2, #0
30000d14:	e5832018 	str	r2, [r3, #24]
30000d18:	e593c014 	ldr	ip, [r3, #20]
30000d1c:	e38c1020 	orr	r1, ip, #32
30000d20:	e5831014 	str	r1, [r3, #20]
30000d24:	e5930014 	ldr	r0, [r3, #20]
30000d28:	e3802040 	orr	r2, r0, #64	; 0x40
30000d2c:	e5832014 	str	r2, [r3, #20]
30000d30:	e593c014 	ldr	ip, [r3, #20]
30000d34:	e38c1080 	orr	r1, ip, #128	; 0x80
30000d38:	e5831014 	str	r1, [r3, #20]
30000d3c:	e5930014 	ldr	r0, [r3, #20]
30000d40:	e3802c01 	orr	r2, r0, #256	; 0x100
30000d44:	e5832014 	str	r2, [r3, #20]
30000d48:	e12fff1e 	bx	lr

30000d4c <led_on>:
30000d4c:	e3a03456 	mov	r3, #1442840576	; 0x56000000
30000d50:	e593c014 	ldr	ip, [r3, #20]
30000d54:	e3a01001 	mov	r1, #1
30000d58:	e1cc2011 	bic	r2, ip, r1, lsl r0
30000d5c:	e5832014 	str	r2, [r3, #20]
30000d60:	e12fff1e 	bx	lr

30000d64 <led_off>:
30000d64:	e3a03456 	mov	r3, #1442840576	; 0x56000000
30000d68:	e593c014 	ldr	ip, [r3, #20]
30000d6c:	e3a01001 	mov	r1, #1
30000d70:	e18c2011 	orr	r2, ip, r1, lsl r0
30000d74:	e5832014 	str	r2, [r3, #20]
30000d78:	e12fff1e 	bx	lr

30000d7c <OS_FlagBlock>:
30000d7c:	e92d0030 	push	{r4, r5}
30000d80:	e59f4078 	ldr	r4, [pc, #120]	; 30000e00 <OS_FlagBlock+0x84>
30000d84:	e594c000 	ldr	ip, [r4]
30000d88:	e5dc502c 	ldrb	r5, [ip, #44]	; 0x2c
30000d8c:	e1dd40b8 	ldrh	r4, [sp, #8]
30000d90:	e3855020 	orr	r5, r5, #32
30000d94:	e5cc502c 	strb	r5, [ip, #44]	; 0x2c
30000d98:	e1cc42ba 	strh	r4, [ip, #42]	; 0x2a
30000d9c:	e58c1024 	str	r1, [ip, #36]	; 0x24
30000da0:	e5c13012 	strb	r3, [r1, #18]
30000da4:	e5903004 	ldr	r3, [r0, #4]
30000da8:	e1c121b0 	strh	r2, [r1, #16]
30000dac:	e3530000 	cmp	r3, #0
30000db0:	e3a02000 	mov	r2, #0
30000db4:	e5813000 	str	r3, [r1]
30000db8:	e9811004 	stmib	r1, {r2, ip}
30000dbc:	15831004 	strne	r1, [r3, #4]
30000dc0:	e581000c 	str	r0, [r1, #12]
30000dc4:	e5801004 	str	r1, [r0, #4]
30000dc8:	e59f2034 	ldr	r2, [pc, #52]	; 30000e04 <OS_FlagBlock+0x88>
30000dcc:	e5dc302f 	ldrb	r3, [ip, #47]	; 0x2f
30000dd0:	e5dc0030 	ldrb	r0, [ip, #48]	; 0x30
30000dd4:	e7d21003 	ldrb	r1, [r2, r3]
30000dd8:	e1c11000 	bic	r1, r1, r0
30000ddc:	e3510000 	cmp	r1, #0
30000de0:	e7c21003 	strb	r1, [r2, r3]
30000de4:	059f301c 	ldreq	r3, [pc, #28]	; 30000e08 <OS_FlagBlock+0x8c>
30000de8:	05dc1031 	ldrbeq	r1, [ip, #49]	; 0x31
30000dec:	05d32000 	ldrbeq	r2, [r3]
30000df0:	01c22001 	biceq	r2, r2, r1
30000df4:	05c32000 	strbeq	r2, [r3]
30000df8:	e8bd0030 	pop	{r4, r5}
30000dfc:	e12fff1e 	bx	lr
30000e00:	30005980 	andcc	r5, r0, r0, lsl #19
30000e04:	30005970 	andcc	r5, r0, r0, ror r9
30000e08:	3000596c 	andcc	r5, r0, ip, ror #18

30000e0c <OSFlagAccept>:
30000e0c:	e250c000 	subs	ip, r0, #0
30000e10:	03e02069 	mvneq	r2, #105	; 0x69
30000e14:	e52d4004 	push	{r4}		; (str r4, [sp, #-4]!)
30000e18:	05c32000 	strbeq	r2, [r3]
30000e1c:	01a0000c 	moveq	r0, ip
30000e20:	0a000005 	beq	30000e3c <OSFlagAccept+0x30>
30000e24:	e5dc0000 	ldrb	r0, [ip]
30000e28:	e3500005 	cmp	r0, #5
30000e2c:	13a02001 	movne	r2, #1
30000e30:	15c32000 	strbne	r2, [r3]
30000e34:	13a00000 	movne	r0, #0
30000e38:	0a000001 	beq	30000e44 <OSFlagAccept+0x38>
30000e3c:	e49d4004 	pop	{r4}		; (ldr r4, [sp], #4)
30000e40:	e12fff1e 	bx	lr
30000e44:	e3120080 	tst	r2, #128	; 0x80
30000e48:	e3a00000 	mov	r0, #0
30000e4c:	1202207f 	andne	r2, r2, #127	; 0x7f
30000e50:	13a04001 	movne	r4, #1
30000e54:	03a04000 	moveq	r4, #0
30000e58:	e5c30000 	strb	r0, [r3]
30000e5c:	e52d0004 	push	{r0}		; (str r0, [sp, #-4]!)
30000e60:	e10f0000 	mrs	r0, CPSR
30000e64:	e38000c0 	orr	r0, r0, #192	; 0xc0
30000e68:	e129f000 	msr	CPSR_fc, r0
30000e6c:	e49d0004 	pop	{r0}		; (ldr r0, [sp], #4)
30000e70:	e3520003 	cmp	r2, #3
30000e74:	979ff102 	ldrls	pc, [pc, r2, lsl #2]
30000e78:	ea000035 	b	30000f54 <OSFlagAccept+0x148>
30000e7c:	30000f20 	andcc	r0, r0, r0, lsr #30
30000e80:	30000ef0 	strdcc	r0, [r0], -r0	; <UNPREDICTABLE>
30000e84:	30000ebc 			; <UNDEFINED> instruction: 0x30000ebc
30000e88:	30000e8c 	andcc	r0, r0, ip, lsl #29
30000e8c:	e1dc00b8 	ldrh	r0, [ip, #8]
30000e90:	e0111000 	ands	r1, r1, r0
30000e94:	1a00003b 	bne	30000f88 <OSFlagAccept+0x17c>
30000e98:	e3e00067 	mvn	r0, #103	; 0x67
30000e9c:	e5c30000 	strb	r0, [r3]
30000ea0:	e1dc00b8 	ldrh	r0, [ip, #8]
30000ea4:	e52d0004 	push	{r0}		; (str r0, [sp, #-4]!)
30000ea8:	e10f0000 	mrs	r0, CPSR
30000eac:	e3c000c0 	bic	r0, r0, #192	; 0xc0
30000eb0:	e129f000 	msr	CPSR_fc, r0
30000eb4:	e49d0004 	pop	{r0}		; (ldr r0, [sp], #4)
30000eb8:	eaffffdf 	b	30000e3c <OSFlagAccept+0x30>
30000ebc:	e1dc00b8 	ldrh	r0, [ip, #8]
30000ec0:	e0012000 	and	r2, r1, r0
30000ec4:	e1520001 	cmp	r2, r1
30000ec8:	0a000036 	beq	30000fa8 <OSFlagAccept+0x19c>
30000ecc:	e3e01067 	mvn	r1, #103	; 0x67
30000ed0:	e5c31000 	strb	r1, [r3]
30000ed4:	e1dc00b8 	ldrh	r0, [ip, #8]
30000ed8:	e52d0004 	push	{r0}		; (str r0, [sp, #-4]!)
30000edc:	e10f0000 	mrs	r0, CPSR
30000ee0:	e3c000c0 	bic	r0, r0, #192	; 0xc0
30000ee4:	e129f000 	msr	CPSR_fc, r0
30000ee8:	e49d0004 	pop	{r0}		; (ldr r0, [sp], #4)
30000eec:	eaffffd2 	b	30000e3c <OSFlagAccept+0x30>
30000ef0:	e1dc00b8 	ldrh	r0, [ip, #8]
30000ef4:	e1d11000 	bics	r1, r1, r0
30000ef8:	1a00001e 	bne	30000f78 <OSFlagAccept+0x16c>
30000efc:	e3e00067 	mvn	r0, #103	; 0x67
30000f00:	e5c30000 	strb	r0, [r3]
30000f04:	e1dc00b8 	ldrh	r0, [ip, #8]
30000f08:	e52d0004 	push	{r0}		; (str r0, [sp, #-4]!)
30000f0c:	e10f0000 	mrs	r0, CPSR
30000f10:	e3c000c0 	bic	r0, r0, #192	; 0xc0
30000f14:	e129f000 	msr	CPSR_fc, r0
30000f18:	e49d0004 	pop	{r0}		; (ldr r0, [sp], #4)
30000f1c:	eaffffc6 	b	30000e3c <OSFlagAccept+0x30>
30000f20:	e1dc00b8 	ldrh	r0, [ip, #8]
30000f24:	e1c12000 	bic	r2, r1, r0
30000f28:	e1520001 	cmp	r2, r1
30000f2c:	0a000019 	beq	30000f98 <OSFlagAccept+0x18c>
30000f30:	e3e01067 	mvn	r1, #103	; 0x67
30000f34:	e5c31000 	strb	r1, [r3]
30000f38:	e1dc00b8 	ldrh	r0, [ip, #8]
30000f3c:	e52d0004 	push	{r0}		; (str r0, [sp, #-4]!)
30000f40:	e10f0000 	mrs	r0, CPSR
30000f44:	e3c000c0 	bic	r0, r0, #192	; 0xc0
30000f48:	e129f000 	msr	CPSR_fc, r0
30000f4c:	e49d0004 	pop	{r0}		; (ldr r0, [sp], #4)
30000f50:	eaffffb9 	b	30000e3c <OSFlagAccept+0x30>
30000f54:	e52d0004 	push	{r0}		; (str r0, [sp, #-4]!)
30000f58:	e10f0000 	mrs	r0, CPSR
30000f5c:	e3c000c0 	bic	r0, r0, #192	; 0xc0
30000f60:	e129f000 	msr	CPSR_fc, r0
30000f64:	e49d0004 	pop	{r0}		; (ldr r0, [sp], #4)
30000f68:	e3e0c068 	mvn	ip, #104	; 0x68
30000f6c:	e5c3c000 	strb	ip, [r3]
30000f70:	e3a00000 	mov	r0, #0
30000f74:	eaffffb0 	b	30000e3c <OSFlagAccept+0x30>
30000f78:	e3540001 	cmp	r4, #1
30000f7c:	01810000 	orreq	r0, r1, r0
30000f80:	01cc00b8 	strheq	r0, [ip, #8]
30000f84:	eaffffdf 	b	30000f08 <OSFlagAccept+0xfc>
30000f88:	e3540001 	cmp	r4, #1
30000f8c:	01c00001 	biceq	r0, r0, r1
30000f90:	01cc00b8 	strheq	r0, [ip, #8]
30000f94:	eaffffc2 	b	30000ea4 <OSFlagAccept+0x98>
30000f98:	e3540001 	cmp	r4, #1
30000f9c:	01810000 	orreq	r0, r1, r0
30000fa0:	01cc00b8 	strheq	r0, [ip, #8]
30000fa4:	eaffffe4 	b	30000f3c <OSFlagAccept+0x130>
30000fa8:	e3540001 	cmp	r4, #1
30000fac:	01c00001 	biceq	r0, r0, r1
30000fb0:	01cc00b8 	strheq	r0, [ip, #8]
30000fb4:	eaffffc7 	b	30000ed8 <OSFlagAccept+0xcc>

30000fb8 <OSFlagCreate>:
30000fb8:	e59f2094 	ldr	r2, [pc, #148]	; 30001054 <OSFlagCreate+0x9c>
30000fbc:	e5d23000 	ldrb	r3, [r2]
30000fc0:	e3530000 	cmp	r3, #0
30000fc4:	e1a03000 	mov	r3, r0
30000fc8:	13e03072 	mvnne	r3, #114	; 0x72
30000fcc:	15c13000 	strbne	r3, [r1]
30000fd0:	13a00000 	movne	r0, #0
30000fd4:	112fff1e 	bxne	lr
30000fd8:	e52d0004 	push	{r0}		; (str r0, [sp, #-4]!)
30000fdc:	e10f0000 	mrs	r0, CPSR
30000fe0:	e38000c0 	orr	r0, r0, #192	; 0xc0
30000fe4:	e129f000 	msr	CPSR_fc, r0
30000fe8:	e49d0004 	pop	{r0}		; (ldr r0, [sp], #4)
30000fec:	e59f2064 	ldr	r2, [pc, #100]	; 30001058 <OSFlagCreate+0xa0>
30000ff0:	e5920000 	ldr	r0, [r2]
30000ff4:	e3500000 	cmp	r0, #0
30000ff8:	0a00000d 	beq	30001034 <OSFlagCreate+0x7c>
30000ffc:	e590c004 	ldr	ip, [r0, #4]
30001000:	e1c030b8 	strh	r3, [r0, #8]
30001004:	e582c000 	str	ip, [r2]
30001008:	e3a03005 	mov	r3, #5
3000100c:	e3a0c000 	mov	ip, #0
30001010:	e5c03000 	strb	r3, [r0]
30001014:	e580c004 	str	ip, [r0, #4]
30001018:	e52d0004 	push	{r0}		; (str r0, [sp, #-4]!)
3000101c:	e10f0000 	mrs	r0, CPSR
30001020:	e3c000c0 	bic	r0, r0, #192	; 0xc0
30001024:	e129f000 	msr	CPSR_fc, r0
30001028:	e49d0004 	pop	{r0}		; (ldr r0, [sp], #4)
3000102c:	e5c1c000 	strb	ip, [r1]
30001030:	e12fff1e 	bx	lr
30001034:	e52d0004 	push	{r0}		; (str r0, [sp, #-4]!)
30001038:	e10f0000 	mrs	r0, CPSR
3000103c:	e3c000c0 	bic	r0, r0, #192	; 0xc0
30001040:	e129f000 	msr	CPSR_fc, r0
30001044:	e49d0004 	pop	{r0}		; (ldr r0, [sp], #4)
30001048:	e3e02065 	mvn	r2, #101	; 0x65
3000104c:	e5c12000 	strb	r2, [r1]
30001050:	e12fff1e 	bx	lr
30001054:	3000597d 	andcc	r5, r0, sp, ror r9
30001058:	30006410 	andcc	r6, r0, r0, lsl r4

3000105c <OSFlagQuery>:
3000105c:	e3500000 	cmp	r0, #0
30001060:	03e03069 	mvneq	r3, #105	; 0x69
30001064:	05c13000 	strbeq	r3, [r1]
30001068:	012fff1e 	bxeq	lr
3000106c:	e5d03000 	ldrb	r3, [r0]
30001070:	e3530005 	cmp	r3, #5
30001074:	13a03001 	movne	r3, #1
30001078:	15c13000 	strbne	r3, [r1]
3000107c:	13a00000 	movne	r0, #0
30001080:	112fff1e 	bxne	lr
30001084:	e52d0004 	push	{r0}		; (str r0, [sp, #-4]!)
30001088:	e10f0000 	mrs	r0, CPSR
3000108c:	e38000c0 	orr	r0, r0, #192	; 0xc0
30001090:	e129f000 	msr	CPSR_fc, r0
30001094:	e49d0004 	pop	{r0}		; (ldr r0, [sp], #4)
30001098:	e1d000b8 	ldrh	r0, [r0, #8]
3000109c:	e52d0004 	push	{r0}		; (str r0, [sp, #-4]!)
300010a0:	e10f0000 	mrs	r0, CPSR
300010a4:	e3c000c0 	bic	r0, r0, #192	; 0xc0
300010a8:	e129f000 	msr	CPSR_fc, r0
300010ac:	e49d0004 	pop	{r0}		; (ldr r0, [sp], #4)
300010b0:	e3a02000 	mov	r2, #0
300010b4:	e5c12000 	strb	r2, [r1]
300010b8:	e12fff1e 	bx	lr

300010bc <OS_FlagInit>:
300010bc:	e59f3048 	ldr	r3, [pc, #72]	; 3000110c <OS_FlagInit+0x50>
300010c0:	e3a02000 	mov	r2, #0
300010c4:	e1a01003 	mov	r1, r3
300010c8:	e52d4004 	push	{r4}		; (str r4, [sp, #-4]!)
300010cc:	e4c1200c 	strb	r2, [r1], #12
300010d0:	e5c3200c 	strb	r2, [r3, #12]
300010d4:	e5c32018 	strb	r2, [r3, #24]
300010d8:	e5c32024 	strb	r2, [r3, #36]	; 0x24
300010dc:	e5832034 	str	r2, [r3, #52]	; 0x34
300010e0:	e59f2028 	ldr	r2, [pc, #40]	; 30001110 <OS_FlagInit+0x54>
300010e4:	e2834018 	add	r4, r3, #24
300010e8:	e283c024 	add	ip, r3, #36	; 0x24
300010ec:	e2830030 	add	r0, r3, #48	; 0x30
300010f0:	e5831004 	str	r1, [r3, #4]
300010f4:	e5834010 	str	r4, [r3, #16]
300010f8:	e583c01c 	str	ip, [r3, #28]
300010fc:	e5830028 	str	r0, [r3, #40]	; 0x28
30001100:	e5823000 	str	r3, [r2]
30001104:	e49d4004 	pop	{r4}		; (ldr r4, [sp], #4)
30001108:	e12fff1e 	bx	lr
3000110c:	3000583c 	andcc	r5, r0, ip, lsr r8
30001110:	30006410 	andcc	r6, r0, r0, lsl r4

30001114 <OS_FlagUnlink>:
30001114:	e5902004 	ldr	r2, [r0, #4]
30001118:	e3520000 	cmp	r2, #0
3000111c:	e5903000 	ldr	r3, [r0]
30001120:	0a000007 	beq	30001144 <OS_FlagUnlink+0x30>
30001124:	e3530000 	cmp	r3, #0
30001128:	e5823000 	str	r3, [r2]
3000112c:	0a000000 	beq	30001134 <OS_FlagUnlink+0x20>
30001130:	e5832004 	str	r2, [r3, #4]
30001134:	e5903008 	ldr	r3, [r0, #8]
30001138:	e3a02000 	mov	r2, #0
3000113c:	e5832024 	str	r2, [r3, #36]	; 0x24
30001140:	e12fff1e 	bx	lr
30001144:	e590100c 	ldr	r1, [r0, #12]
30001148:	e3530000 	cmp	r3, #0
3000114c:	e5813004 	str	r3, [r1, #4]
30001150:	1afffff6 	bne	30001130 <OS_FlagUnlink+0x1c>
30001154:	eafffff6 	b	30001134 <OS_FlagUnlink+0x20>

30001158 <OS_FlagTaskRdy>:
30001158:	e92d4010 	push	{r4, lr}
3000115c:	e5903008 	ldr	r3, [r0, #8]
30001160:	e5d3e02c 	ldrb	lr, [r3, #44]	; 0x2c
30001164:	e20e20df 	and	r2, lr, #223	; 0xdf
30001168:	e3520000 	cmp	r2, #0
3000116c:	e3a0c000 	mov	ip, #0
30001170:	e1c3c2ba 	strh	ip, [r3, #42]	; 0x2a
30001174:	e1c312b8 	strh	r1, [r3, #40]	; 0x28
30001178:	e5c3202c 	strb	r2, [r3, #44]	; 0x2c
3000117c:	13a04000 	movne	r4, #0
30001180:	1a00000b 	bne	300011b4 <OS_FlagTaskRdy+0x5c>
30001184:	e59f4038 	ldr	r4, [pc, #56]	; 300011c4 <OS_FlagTaskRdy+0x6c>
30001188:	e5d31031 	ldrb	r1, [r3, #49]	; 0x31
3000118c:	e5d42000 	ldrb	r2, [r4]
30001190:	e182e001 	orr	lr, r2, r1
30001194:	e5c4e000 	strb	lr, [r4]
30001198:	e59f1028 	ldr	r1, [pc, #40]	; 300011c8 <OS_FlagTaskRdy+0x70>
3000119c:	e5d3402f 	ldrb	r4, [r3, #47]	; 0x2f
300011a0:	e5d32030 	ldrb	r2, [r3, #48]	; 0x30
300011a4:	e7d1c004 	ldrb	ip, [r1, r4]
300011a8:	e18c3002 	orr	r3, ip, r2
300011ac:	e7c13004 	strb	r3, [r1, r4]
300011b0:	e3a04001 	mov	r4, #1
300011b4:	ebffffd6 	bl	30001114 <OS_FlagUnlink>
300011b8:	e1a00004 	mov	r0, r4
300011bc:	e8bd4010 	pop	{r4, lr}
300011c0:	e12fff1e 	bx	lr
300011c4:	3000596c 	andcc	r5, r0, ip, ror #18
300011c8:	30005970 	andcc	r5, r0, r0, ror r9

300011cc <OSFlagPost>:
300011cc:	e92d40f8 	push	{r3, r4, r5, r6, r7, lr}
300011d0:	e2504000 	subs	r4, r0, #0
300011d4:	e1a06003 	mov	r6, r3
300011d8:	03e03069 	mvneq	r3, #105	; 0x69
300011dc:	05c63000 	strbeq	r3, [r6]
300011e0:	01a00004 	moveq	r0, r4
300011e4:	0a000005 	beq	30001200 <OSFlagPost+0x34>
300011e8:	e5d43000 	ldrb	r3, [r4]
300011ec:	e3530005 	cmp	r3, #5
300011f0:	13a03001 	movne	r3, #1
300011f4:	15c63000 	strbne	r3, [r6]
300011f8:	13a00000 	movne	r0, #0
300011fc:	0a000001 	beq	30001208 <OSFlagPost+0x3c>
30001200:	e8bd40f8 	pop	{r3, r4, r5, r6, r7, lr}
30001204:	e12fff1e 	bx	lr
30001208:	e52d0004 	push	{r0}		; (str r0, [sp, #-4]!)
3000120c:	e10f0000 	mrs	r0, CPSR
30001210:	e38000c0 	orr	r0, r0, #192	; 0xc0
30001214:	e129f000 	msr	CPSR_fc, r0
30001218:	e49d0004 	pop	{r0}		; (ldr r0, [sp], #4)
3000121c:	e3520000 	cmp	r2, #0
30001220:	1a00000f 	bne	30001264 <OSFlagPost+0x98>
30001224:	e1d400b8 	ldrh	r0, [r4, #8]
30001228:	e1c01001 	bic	r1, r0, r1
3000122c:	e1c410b8 	strh	r1, [r4, #8]
30001230:	e5945004 	ldr	r5, [r4, #4]
30001234:	e3550000 	cmp	r5, #0
30001238:	01a07005 	moveq	r7, r5
3000123c:	0a00001e 	beq	300012bc <OSFlagPost+0xf0>
30001240:	e3a07000 	mov	r7, #0
30001244:	e5d53012 	ldrb	r3, [r5, #18]
30001248:	e3530003 	cmp	r3, #3
3000124c:	979ff103 	ldrls	pc, [pc, r3, lsl #2]
30001250:	ea000016 	b	300012b0 <OSFlagPost+0xe4>
30001254:	30001354 	andcc	r1, r0, r4, asr r3
30001258:	30001334 	andcc	r1, r0, r4, lsr r3
3000125c:	30001310 	andcc	r1, r0, r0, lsl r3
30001260:	30001290 	mulcc	r0, r0, r2
30001264:	e3520001 	cmp	r2, #1
30001268:	0a000042 	beq	30001378 <OSFlagPost+0x1ac>
3000126c:	e52d0004 	push	{r0}		; (str r0, [sp, #-4]!)
30001270:	e10f0000 	mrs	r0, CPSR
30001274:	e3c000c0 	bic	r0, r0, #192	; 0xc0
30001278:	e129f000 	msr	CPSR_fc, r0
3000127c:	e49d0004 	pop	{r0}		; (ldr r0, [sp], #4)
30001280:	e3e0c066 	mvn	ip, #102	; 0x66
30001284:	e5c6c000 	strb	ip, [r6]
30001288:	e3a00000 	mov	r0, #0
3000128c:	eaffffdb 	b	30001200 <OSFlagPost+0x34>
30001290:	e1d511b0 	ldrh	r1, [r5, #16]
30001294:	e1d4c0b8 	ldrh	ip, [r4, #8]
30001298:	e011100c 	ands	r1, r1, ip
3000129c:	0a000003 	beq	300012b0 <OSFlagPost+0xe4>
300012a0:	e1a00005 	mov	r0, r5
300012a4:	ebffffab 	bl	30001158 <OS_FlagTaskRdy>
300012a8:	e3500001 	cmp	r0, #1
300012ac:	03a07001 	moveq	r7, #1
300012b0:	e5955000 	ldr	r5, [r5]
300012b4:	e3550000 	cmp	r5, #0
300012b8:	1affffe1 	bne	30001244 <OSFlagPost+0x78>
300012bc:	e52d0004 	push	{r0}		; (str r0, [sp, #-4]!)
300012c0:	e10f0000 	mrs	r0, CPSR
300012c4:	e3c000c0 	bic	r0, r0, #192	; 0xc0
300012c8:	e129f000 	msr	CPSR_fc, r0
300012cc:	e49d0004 	pop	{r0}		; (ldr r0, [sp], #4)
300012d0:	e3570001 	cmp	r7, #1
300012d4:	0a00002b 	beq	30001388 <OSFlagPost+0x1bc>
300012d8:	e52d0004 	push	{r0}		; (str r0, [sp, #-4]!)
300012dc:	e10f0000 	mrs	r0, CPSR
300012e0:	e38000c0 	orr	r0, r0, #192	; 0xc0
300012e4:	e129f000 	msr	CPSR_fc, r0
300012e8:	e49d0004 	pop	{r0}		; (ldr r0, [sp], #4)
300012ec:	e1d400b8 	ldrh	r0, [r4, #8]
300012f0:	e52d0004 	push	{r0}		; (str r0, [sp, #-4]!)
300012f4:	e10f0000 	mrs	r0, CPSR
300012f8:	e3c000c0 	bic	r0, r0, #192	; 0xc0
300012fc:	e129f000 	msr	CPSR_fc, r0
30001300:	e49d0004 	pop	{r0}		; (ldr r0, [sp], #4)
30001304:	e3a0c000 	mov	ip, #0
30001308:	e5c6c000 	strb	ip, [r6]
3000130c:	eaffffbb 	b	30001200 <OSFlagPost+0x34>
30001310:	e1d511b0 	ldrh	r1, [r5, #16]
30001314:	e1d420b8 	ldrh	r2, [r4, #8]
30001318:	e0010002 	and	r0, r1, r2
3000131c:	e1510000 	cmp	r1, r0
30001320:	0affffde 	beq	300012a0 <OSFlagPost+0xd4>
30001324:	e5955000 	ldr	r5, [r5]
30001328:	e3550000 	cmp	r5, #0
3000132c:	1affffc4 	bne	30001244 <OSFlagPost+0x78>
30001330:	eaffffe1 	b	300012bc <OSFlagPost+0xf0>
30001334:	e1d511b0 	ldrh	r1, [r5, #16]
30001338:	e1d420b8 	ldrh	r2, [r4, #8]
3000133c:	e1d11002 	bics	r1, r1, r2
30001340:	1affffd6 	bne	300012a0 <OSFlagPost+0xd4>
30001344:	e5955000 	ldr	r5, [r5]
30001348:	e3550000 	cmp	r5, #0
3000134c:	1affffbc 	bne	30001244 <OSFlagPost+0x78>
30001350:	eaffffd9 	b	300012bc <OSFlagPost+0xf0>
30001354:	e1d511b0 	ldrh	r1, [r5, #16]
30001358:	e1d400b8 	ldrh	r0, [r4, #8]
3000135c:	e1c13000 	bic	r3, r1, r0
30001360:	e1510003 	cmp	r1, r3
30001364:	0affffcd 	beq	300012a0 <OSFlagPost+0xd4>
30001368:	e5955000 	ldr	r5, [r5]
3000136c:	e3550000 	cmp	r5, #0
30001370:	1affffb3 	bne	30001244 <OSFlagPost+0x78>
30001374:	eaffffd0 	b	300012bc <OSFlagPost+0xf0>
30001378:	e1d450b8 	ldrh	r5, [r4, #8]
3000137c:	e1812005 	orr	r2, r1, r5
30001380:	e1c420b8 	strh	r2, [r4, #8]
30001384:	eaffffa9 	b	30001230 <OSFlagPost+0x64>
30001388:	eb0009bd 	bl	30003a84 <OS_Sched>
3000138c:	eaffffd1 	b	300012d8 <OSFlagPost+0x10c>

30001390 <OSFlagDel>:
30001390:	e92d40f8 	push	{r3, r4, r5, r6, r7, lr}
30001394:	e59f315c 	ldr	r3, [pc, #348]	; 300014f8 <OSFlagDel+0x168>
30001398:	e5d33000 	ldrb	r3, [r3]
3000139c:	e3530000 	cmp	r3, #0
300013a0:	13e03073 	mvnne	r3, #115	; 0x73
300013a4:	e1a04000 	mov	r4, r0
300013a8:	e1a06002 	mov	r6, r2
300013ac:	15c23000 	strbne	r3, [r2]
300013b0:	1a000008 	bne	300013d8 <OSFlagDel+0x48>
300013b4:	e3500000 	cmp	r0, #0
300013b8:	03e03069 	mvneq	r3, #105	; 0x69
300013bc:	05c23000 	strbeq	r3, [r2]
300013c0:	0a000004 	beq	300013d8 <OSFlagDel+0x48>
300013c4:	e5d0c000 	ldrb	ip, [r0]
300013c8:	e35c0005 	cmp	ip, #5
300013cc:	13a0c001 	movne	ip, #1
300013d0:	15c2c000 	strbne	ip, [r2]
300013d4:	0a000002 	beq	300013e4 <OSFlagDel+0x54>
300013d8:	e1a00004 	mov	r0, r4
300013dc:	e8bd40f8 	pop	{r3, r4, r5, r6, r7, lr}
300013e0:	e12fff1e 	bx	lr
300013e4:	e52d0004 	push	{r0}		; (str r0, [sp, #-4]!)
300013e8:	e10f0000 	mrs	r0, CPSR
300013ec:	e38000c0 	orr	r0, r0, #192	; 0xc0
300013f0:	e129f000 	msr	CPSR_fc, r0
300013f4:	e49d0004 	pop	{r0}		; (ldr r0, [sp], #4)
300013f8:	e5905004 	ldr	r5, [r0, #4]
300013fc:	e2557000 	subs	r7, r5, #0
30001400:	13a07001 	movne	r7, #1
30001404:	e3510000 	cmp	r1, #0
30001408:	1a000009 	bne	30001434 <OSFlagDel+0xa4>
3000140c:	e3570000 	cmp	r7, #0
30001410:	0a00002b 	beq	300014c4 <OSFlagDel+0x134>
30001414:	e52d0004 	push	{r0}		; (str r0, [sp, #-4]!)
30001418:	e10f0000 	mrs	r0, CPSR
3000141c:	e3c000c0 	bic	r0, r0, #192	; 0xc0
30001420:	e129f000 	msr	CPSR_fc, r0
30001424:	e49d0004 	pop	{r0}		; (ldr r0, [sp], #4)
30001428:	e3a00008 	mov	r0, #8
3000142c:	e5c20000 	strb	r0, [r2]
30001430:	eaffffe8 	b	300013d8 <OSFlagDel+0x48>
30001434:	e3510001 	cmp	r1, #1
30001438:	0a000007 	beq	3000145c <OSFlagDel+0xcc>
3000143c:	e52d0004 	push	{r0}		; (str r0, [sp, #-4]!)
30001440:	e10f0000 	mrs	r0, CPSR
30001444:	e3c000c0 	bic	r0, r0, #192	; 0xc0
30001448:	e129f000 	msr	CPSR_fc, r0
3000144c:	e49d0004 	pop	{r0}		; (ldr r0, [sp], #4)
30001450:	e3a01007 	mov	r1, #7
30001454:	e5c21000 	strb	r1, [r2]
30001458:	eaffffde 	b	300013d8 <OSFlagDel+0x48>
3000145c:	e3550000 	cmp	r5, #0
30001460:	0a000005 	beq	3000147c <OSFlagDel+0xec>
30001464:	e1a00005 	mov	r0, r5
30001468:	e3a01000 	mov	r1, #0
3000146c:	ebffff39 	bl	30001158 <OS_FlagTaskRdy>
30001470:	e5955000 	ldr	r5, [r5]
30001474:	e3550000 	cmp	r5, #0
30001478:	1afffff9 	bne	30001464 <OSFlagDel+0xd4>
3000147c:	e3a02000 	mov	r2, #0
30001480:	e5c42000 	strb	r2, [r4]
30001484:	e59f3070 	ldr	r3, [pc, #112]	; 300014fc <OSFlagDel+0x16c>
30001488:	e593c000 	ldr	ip, [r3]
3000148c:	e5834000 	str	r4, [r3]
30001490:	e584c004 	str	ip, [r4, #4]
30001494:	e52d0004 	push	{r0}		; (str r0, [sp, #-4]!)
30001498:	e10f0000 	mrs	r0, CPSR
3000149c:	e3c000c0 	bic	r0, r0, #192	; 0xc0
300014a0:	e129f000 	msr	CPSR_fc, r0
300014a4:	e49d0004 	pop	{r0}		; (ldr r0, [sp], #4)
300014a8:	e3570001 	cmp	r7, #1
300014ac:	0a000002 	beq	300014bc <OSFlagDel+0x12c>
300014b0:	e3a04000 	mov	r4, #0
300014b4:	e5c64000 	strb	r4, [r6]
300014b8:	eaffffc6 	b	300013d8 <OSFlagDel+0x48>
300014bc:	eb000970 	bl	30003a84 <OS_Sched>
300014c0:	eafffffa 	b	300014b0 <OSFlagDel+0x120>
300014c4:	e5c07000 	strb	r7, [r0]
300014c8:	e59f102c 	ldr	r1, [pc, #44]	; 300014fc <OSFlagDel+0x16c>
300014cc:	e5912000 	ldr	r2, [r1]
300014d0:	e5810000 	str	r0, [r1]
300014d4:	e5802004 	str	r2, [r0, #4]
300014d8:	e52d0004 	push	{r0}		; (str r0, [sp, #-4]!)
300014dc:	e10f0000 	mrs	r0, CPSR
300014e0:	e3c000c0 	bic	r0, r0, #192	; 0xc0
300014e4:	e129f000 	msr	CPSR_fc, r0
300014e8:	e49d0004 	pop	{r0}		; (ldr r0, [sp], #4)
300014ec:	e3a04000 	mov	r4, #0
300014f0:	e5c64000 	strb	r4, [r6]
300014f4:	eaffffb7 	b	300013d8 <OSFlagDel+0x48>
300014f8:	3000597d 	andcc	r5, r0, sp, ror r9
300014fc:	30006410 	andcc	r6, r0, r0, lsl r4

30001500 <OSFlagPend>:
30001500:	e92d47f0 	push	{r4, r5, r6, r7, r8, r9, sl, lr}
30001504:	e59fc350 	ldr	ip, [pc, #848]	; 3000185c <OSFlagPend+0x35c>
30001508:	e5dcc000 	ldrb	ip, [ip]
3000150c:	e24dd020 	sub	sp, sp, #32
30001510:	e35c0000 	cmp	ip, #0
30001514:	e59d8040 	ldr	r8, [sp, #64]	; 0x40
30001518:	e1a07003 	mov	r7, r3
3000151c:	13a03002 	movne	r3, #2
30001520:	e1a04000 	mov	r4, r0
30001524:	e1a06001 	mov	r6, r1
30001528:	e1a05002 	mov	r5, r2
3000152c:	15c83000 	strbne	r3, [r8]
30001530:	13a00000 	movne	r0, #0
30001534:	1a00000a 	bne	30001564 <OSFlagPend+0x64>
30001538:	e3500000 	cmp	r0, #0
3000153c:	03e03069 	mvneq	r3, #105	; 0x69
30001540:	05c83000 	strbeq	r3, [r8]
30001544:	01a00000 	moveq	r0, r0
30001548:	0a000005 	beq	30001564 <OSFlagPend+0x64>
3000154c:	e5d03000 	ldrb	r3, [r0]
30001550:	e3530005 	cmp	r3, #5
30001554:	13a03001 	movne	r3, #1
30001558:	15c83000 	strbne	r3, [r8]
3000155c:	11a0000c 	movne	r0, ip
30001560:	0a000002 	beq	30001570 <OSFlagPend+0x70>
30001564:	e28dd020 	add	sp, sp, #32
30001568:	e8bd47f0 	pop	{r4, r5, r6, r7, r8, r9, sl, lr}
3000156c:	e12fff1e 	bx	lr
30001570:	e3120080 	tst	r2, #128	; 0x80
30001574:	1202507f 	andne	r5, r2, #127	; 0x7f
30001578:	13a0a001 	movne	sl, #1
3000157c:	01a0a00c 	moveq	sl, ip
30001580:	e52d0004 	push	{r0}		; (str r0, [sp, #-4]!)
30001584:	e10f0000 	mrs	r0, CPSR
30001588:	e38000c0 	orr	r0, r0, #192	; 0xc0
3000158c:	e129f000 	msr	CPSR_fc, r0
30001590:	e49d0004 	pop	{r0}		; (ldr r0, [sp], #4)
30001594:	e3550003 	cmp	r5, #3
30001598:	979ff105 	ldrls	pc, [pc, r5, lsl #2]
3000159c:	ea000011 	b	300015e8 <OSFlagPend+0xe8>
300015a0:	30001680 	andcc	r1, r0, r0, lsl #13
300015a4:	3000160c 	andcc	r1, r0, ip, lsl #12
300015a8:	30001644 	andcc	r1, r0, r4, asr #12
300015ac:	300015b0 			; <UNDEFINED> instruction: 0x300015b0
300015b0:	e1d400b8 	ldrh	r0, [r4, #8]
300015b4:	e0113000 	ands	r3, r1, r0
300015b8:	0a00008d 	beq	300017f4 <OSFlagPend+0x2f4>
300015bc:	e35a0001 	cmp	sl, #1
300015c0:	01c00003 	biceq	r0, r0, r3
300015c4:	01c400b8 	strheq	r0, [r4, #8]
300015c8:	e52d0004 	push	{r0}		; (str r0, [sp, #-4]!)
300015cc:	e10f0000 	mrs	r0, CPSR
300015d0:	e3c000c0 	bic	r0, r0, #192	; 0xc0
300015d4:	e129f000 	msr	CPSR_fc, r0
300015d8:	e49d0004 	pop	{r0}		; (ldr r0, [sp], #4)
300015dc:	e3a0c000 	mov	ip, #0
300015e0:	e5c8c000 	strb	ip, [r8]
300015e4:	eaffffde 	b	30001564 <OSFlagPend+0x64>
300015e8:	e52d0004 	push	{r0}		; (str r0, [sp, #-4]!)
300015ec:	e10f0000 	mrs	r0, CPSR
300015f0:	e3c000c0 	bic	r0, r0, #192	; 0xc0
300015f4:	e129f000 	msr	CPSR_fc, r0
300015f8:	e49d0004 	pop	{r0}		; (ldr r0, [sp], #4)
300015fc:	e3e00068 	mvn	r0, #104	; 0x68
30001600:	e5c80000 	strb	r0, [r8]
30001604:	e3a00000 	mov	r0, #0
30001608:	eaffffd5 	b	30001564 <OSFlagPend+0x64>
3000160c:	e1d400b8 	ldrh	r0, [r4, #8]
30001610:	e1d13000 	bics	r3, r1, r0
30001614:	0a000083 	beq	30001828 <OSFlagPend+0x328>
30001618:	e35a0001 	cmp	sl, #1
3000161c:	01830000 	orreq	r0, r3, r0
30001620:	01c400b8 	strheq	r0, [r4, #8]
30001624:	e52d0004 	push	{r0}		; (str r0, [sp, #-4]!)
30001628:	e10f0000 	mrs	r0, CPSR
3000162c:	e3c000c0 	bic	r0, r0, #192	; 0xc0
30001630:	e129f000 	msr	CPSR_fc, r0
30001634:	e49d0004 	pop	{r0}		; (ldr r0, [sp], #4)
30001638:	e3a02000 	mov	r2, #0
3000163c:	e5c82000 	strb	r2, [r8]
30001640:	eaffffc7 	b	30001564 <OSFlagPend+0x64>
30001644:	e1d400b8 	ldrh	r0, [r4, #8]
30001648:	e0011000 	and	r1, r1, r0
3000164c:	e1510006 	cmp	r1, r6
30001650:	1a000019 	bne	300016bc <OSFlagPend+0x1bc>
30001654:	e35a0001 	cmp	sl, #1
30001658:	01c00006 	biceq	r0, r0, r6
3000165c:	01c400b8 	strheq	r0, [r4, #8]
30001660:	e52d0004 	push	{r0}		; (str r0, [sp, #-4]!)
30001664:	e10f0000 	mrs	r0, CPSR
30001668:	e3c000c0 	bic	r0, r0, #192	; 0xc0
3000166c:	e129f000 	msr	CPSR_fc, r0
30001670:	e49d0004 	pop	{r0}		; (ldr r0, [sp], #4)
30001674:	e3a02000 	mov	r2, #0
30001678:	e5c82000 	strb	r2, [r8]
3000167c:	eaffffb8 	b	30001564 <OSFlagPend+0x64>
30001680:	e1d400b8 	ldrh	r0, [r4, #8]
30001684:	e1c13000 	bic	r3, r1, r0
30001688:	e1530001 	cmp	r3, r1
3000168c:	1a00003d 	bne	30001788 <OSFlagPend+0x288>
30001690:	e35a0001 	cmp	sl, #1
30001694:	01810000 	orreq	r0, r1, r0
30001698:	01c400b8 	strheq	r0, [r4, #8]
3000169c:	e52d0004 	push	{r0}		; (str r0, [sp, #-4]!)
300016a0:	e10f0000 	mrs	r0, CPSR
300016a4:	e3c000c0 	bic	r0, r0, #192	; 0xc0
300016a8:	e129f000 	msr	CPSR_fc, r0
300016ac:	e49d0004 	pop	{r0}		; (ldr r0, [sp], #4)
300016b0:	e3a01000 	mov	r1, #0
300016b4:	e5c81000 	strb	r1, [r8]
300016b8:	eaffffa9 	b	30001564 <OSFlagPend+0x64>
300016bc:	e28d900c 	add	r9, sp, #12
300016c0:	e1a00004 	mov	r0, r4
300016c4:	e1a01009 	mov	r1, r9
300016c8:	e1a02006 	mov	r2, r6
300016cc:	e3a03002 	mov	r3, #2
300016d0:	e58d7000 	str	r7, [sp]
300016d4:	ebfffda8 	bl	30000d7c <OS_FlagBlock>
300016d8:	e52d0004 	push	{r0}		; (str r0, [sp, #-4]!)
300016dc:	e10f0000 	mrs	r0, CPSR
300016e0:	e3c000c0 	bic	r0, r0, #192	; 0xc0
300016e4:	e129f000 	msr	CPSR_fc, r0
300016e8:	e49d0004 	pop	{r0}		; (ldr r0, [sp], #4)
300016ec:	eb0008e4 	bl	30003a84 <OS_Sched>
300016f0:	e52d0004 	push	{r0}		; (str r0, [sp, #-4]!)
300016f4:	e10f0000 	mrs	r0, CPSR
300016f8:	e38000c0 	orr	r0, r0, #192	; 0xc0
300016fc:	e129f000 	msr	CPSR_fc, r0
30001700:	e49d0004 	pop	{r0}		; (ldr r0, [sp], #4)
30001704:	e59f6154 	ldr	r6, [pc, #340]	; 30001860 <OSFlagPend+0x360>
30001708:	e5963000 	ldr	r3, [r6]
3000170c:	e5d3c02c 	ldrb	ip, [r3, #44]	; 0x2c
30001710:	e31c0020 	tst	ip, #32
30001714:	1a000028 	bne	300017bc <OSFlagPend+0x2bc>
30001718:	e35a0001 	cmp	sl, #1
3000171c:	0a000008 	beq	30001744 <OSFlagPend+0x244>
30001720:	e1d400b8 	ldrh	r0, [r4, #8]
30001724:	e52d0004 	push	{r0}		; (str r0, [sp, #-4]!)
30001728:	e10f0000 	mrs	r0, CPSR
3000172c:	e3c000c0 	bic	r0, r0, #192	; 0xc0
30001730:	e129f000 	msr	CPSR_fc, r0
30001734:	e49d0004 	pop	{r0}		; (ldr r0, [sp], #4)
30001738:	e3a01000 	mov	r1, #0
3000173c:	e5c81000 	strb	r1, [r8]
30001740:	eaffff87 	b	30001564 <OSFlagPend+0x64>
30001744:	e3550003 	cmp	r5, #3
30001748:	979ff105 	ldrls	pc, [pc, r5, lsl #2]
3000174c:	eafffff3 	b	30001720 <OSFlagPend+0x220>
30001750:	30001774 	andcc	r1, r0, r4, ror r7
30001754:	30001774 	andcc	r1, r0, r4, ror r7
30001758:	30001760 	andcc	r1, r0, r0, ror #14
3000175c:	30001760 	andcc	r1, r0, r0, ror #14
30001760:	e1d3e2b8 	ldrh	lr, [r3, #40]	; 0x28
30001764:	e1d400b8 	ldrh	r0, [r4, #8]
30001768:	e1c0000e 	bic	r0, r0, lr
3000176c:	e1c400b8 	strh	r0, [r4, #8]
30001770:	eaffffeb 	b	30001724 <OSFlagPend+0x224>
30001774:	e1d3c2b8 	ldrh	ip, [r3, #40]	; 0x28
30001778:	e1d430b8 	ldrh	r3, [r4, #8]
3000177c:	e18c0003 	orr	r0, ip, r3
30001780:	e1c400b8 	strh	r0, [r4, #8]
30001784:	eaffffe6 	b	30001724 <OSFlagPend+0x224>
30001788:	e28d900c 	add	r9, sp, #12
3000178c:	e1a00004 	mov	r0, r4
30001790:	e1a01009 	mov	r1, r9
30001794:	e1a02006 	mov	r2, r6
30001798:	e3a03000 	mov	r3, #0
3000179c:	e58d7000 	str	r7, [sp]
300017a0:	ebfffd75 	bl	30000d7c <OS_FlagBlock>
300017a4:	e52d0004 	push	{r0}		; (str r0, [sp, #-4]!)
300017a8:	e10f0000 	mrs	r0, CPSR
300017ac:	e3c000c0 	bic	r0, r0, #192	; 0xc0
300017b0:	e129f000 	msr	CPSR_fc, r0
300017b4:	e49d0004 	pop	{r0}		; (ldr r0, [sp], #4)
300017b8:	eaffffcb 	b	300016ec <OSFlagPend+0x1ec>
300017bc:	e1a00009 	mov	r0, r9
300017c0:	ebfffe53 	bl	30001114 <OS_FlagUnlink>
300017c4:	e5962000 	ldr	r2, [r6]
300017c8:	e3a01000 	mov	r1, #0
300017cc:	e5c2102c 	strb	r1, [r2, #44]	; 0x2c
300017d0:	e52d0004 	push	{r0}		; (str r0, [sp, #-4]!)
300017d4:	e10f0000 	mrs	r0, CPSR
300017d8:	e3c000c0 	bic	r0, r0, #192	; 0xc0
300017dc:	e129f000 	msr	CPSR_fc, r0
300017e0:	e49d0004 	pop	{r0}		; (ldr r0, [sp], #4)
300017e4:	e3a0300a 	mov	r3, #10
300017e8:	e5c83000 	strb	r3, [r8]
300017ec:	e3a00000 	mov	r0, #0
300017f0:	eaffff5b 	b	30001564 <OSFlagPend+0x64>
300017f4:	e28d900c 	add	r9, sp, #12
300017f8:	e1a00004 	mov	r0, r4
300017fc:	e1a01009 	mov	r1, r9
30001800:	e1a02006 	mov	r2, r6
30001804:	e3a03003 	mov	r3, #3
30001808:	e58d7000 	str	r7, [sp]
3000180c:	ebfffd5a 	bl	30000d7c <OS_FlagBlock>
30001810:	e52d0004 	push	{r0}		; (str r0, [sp, #-4]!)
30001814:	e10f0000 	mrs	r0, CPSR
30001818:	e3c000c0 	bic	r0, r0, #192	; 0xc0
3000181c:	e129f000 	msr	CPSR_fc, r0
30001820:	e49d0004 	pop	{r0}		; (ldr r0, [sp], #4)
30001824:	eaffffb0 	b	300016ec <OSFlagPend+0x1ec>
30001828:	e28d900c 	add	r9, sp, #12
3000182c:	e1a00004 	mov	r0, r4
30001830:	e1a01009 	mov	r1, r9
30001834:	e1a02006 	mov	r2, r6
30001838:	e3a03001 	mov	r3, #1
3000183c:	e58d7000 	str	r7, [sp]
30001840:	ebfffd4d 	bl	30000d7c <OS_FlagBlock>
30001844:	e52d0004 	push	{r0}		; (str r0, [sp, #-4]!)
30001848:	e10f0000 	mrs	r0, CPSR
3000184c:	e3c000c0 	bic	r0, r0, #192	; 0xc0
30001850:	e129f000 	msr	CPSR_fc, r0
30001854:	e49d0004 	pop	{r0}		; (ldr r0, [sp], #4)
30001858:	eaffffa3 	b	300016ec <OSFlagPend+0x1ec>
3000185c:	3000597d 	andcc	r5, r0, sp, ror r9
30001860:	30005980 	andcc	r5, r0, r0, lsl #19

30001864 <TestTask>:
30001864:	e92d4008 	push	{r3, lr}
30001868:	e59f000c 	ldr	r0, [pc, #12]	; 3000187c <TestTask+0x18>
3000186c:	ebfffca6 	bl	30000b0c <putc_string>
30001870:	e3a00001 	mov	r0, #1
30001874:	eb00099d 	bl	30003ef0 <OSTimeDly>
30001878:	eafffffa 	b	30001868 <TestTask+0x4>
3000187c:	30005784 	andcc	r5, r0, r4, lsl #15

30001880 <OSMutexAccept>:
30001880:	e59f30c4 	ldr	r3, [pc, #196]	; 3000194c <OSMutexAccept+0xcc>
30001884:	e5d33000 	ldrb	r3, [r3]
30001888:	e3530000 	cmp	r3, #0
3000188c:	13a03002 	movne	r3, #2
30001890:	15c13000 	strbne	r3, [r1]
30001894:	13a00000 	movne	r0, #0
30001898:	112fff1e 	bxne	lr
3000189c:	e3500000 	cmp	r0, #0
300018a0:	03a03004 	moveq	r3, #4
300018a4:	05c13000 	strbeq	r3, [r1]
300018a8:	012fff1e 	bxeq	lr
300018ac:	e5d02000 	ldrb	r2, [r0]
300018b0:	e3520004 	cmp	r2, #4
300018b4:	13a02001 	movne	r2, #1
300018b8:	15c12000 	strbne	r2, [r1]
300018bc:	11a00003 	movne	r0, r3
300018c0:	112fff1e 	bxne	lr
300018c4:	e52d0004 	push	{r0}		; (str r0, [sp, #-4]!)
300018c8:	e10f0000 	mrs	r0, CPSR
300018cc:	e38000c0 	orr	r0, r0, #192	; 0xc0
300018d0:	e129f000 	msr	CPSR_fc, r0
300018d4:	e49d0004 	pop	{r0}		; (ldr r0, [sp], #4)
300018d8:	e1d030b2 	ldrh	r3, [r0, #2]
300018dc:	e203c0ff 	and	ip, r3, #255	; 0xff
300018e0:	e35c00ff 	cmp	ip, #255	; 0xff
300018e4:	0a000007 	beq	30001908 <OSMutexAccept+0x88>
300018e8:	e52d0004 	push	{r0}		; (str r0, [sp, #-4]!)
300018ec:	e10f0000 	mrs	r0, CPSR
300018f0:	e3c000c0 	bic	r0, r0, #192	; 0xc0
300018f4:	e129f000 	msr	CPSR_fc, r0
300018f8:	e49d0004 	pop	{r0}		; (ldr r0, [sp], #4)
300018fc:	e3a00000 	mov	r0, #0
30001900:	e5c10000 	strb	r0, [r1]
30001904:	e12fff1e 	bx	lr
30001908:	e59f2040 	ldr	r2, [pc, #64]	; 30001950 <OSMutexAccept+0xd0>
3000190c:	e2033cff 	and	r3, r3, #65280	; 0xff00
30001910:	e5922000 	ldr	r2, [r2]
30001914:	e1c030b2 	strh	r3, [r0, #2]
30001918:	e5d2c02d 	ldrb	ip, [r2, #45]	; 0x2d
3000191c:	e183300c 	orr	r3, r3, ip
30001920:	e1c030b2 	strh	r3, [r0, #2]
30001924:	e5802004 	str	r2, [r0, #4]
30001928:	e52d0004 	push	{r0}		; (str r0, [sp, #-4]!)
3000192c:	e10f0000 	mrs	r0, CPSR
30001930:	e3c000c0 	bic	r0, r0, #192	; 0xc0
30001934:	e129f000 	msr	CPSR_fc, r0
30001938:	e49d0004 	pop	{r0}		; (ldr r0, [sp], #4)
3000193c:	e3a00000 	mov	r0, #0
30001940:	e5c10000 	strb	r0, [r1]
30001944:	e3a00001 	mov	r0, #1
30001948:	e12fff1e 	bx	lr
3000194c:	3000597d 	andcc	r5, r0, sp, ror r9
30001950:	30005980 	andcc	r5, r0, r0, lsl #19

30001954 <OSMutexCreate>:
30001954:	e92d4070 	push	{r4, r5, r6, lr}
30001958:	e59f3100 	ldr	r3, [pc, #256]	; 30001a60 <OSMutexCreate+0x10c>
3000195c:	e5d33000 	ldrb	r3, [r3]
30001960:	e3530000 	cmp	r3, #0
30001964:	13e03072 	mvnne	r3, #114	; 0x72
30001968:	e1a05001 	mov	r5, r1
3000196c:	15c13000 	strbne	r3, [r1]
30001970:	13a04000 	movne	r4, #0
30001974:	1a000024 	bne	30001a0c <OSMutexCreate+0xb8>
30001978:	e350000b 	cmp	r0, #11
3000197c:	83a0202a 	movhi	r2, #42	; 0x2a
30001980:	85c12000 	strbhi	r2, [r1]
30001984:	81a04003 	movhi	r4, r3
30001988:	8a00001f 	bhi	30001a0c <OSMutexCreate+0xb8>
3000198c:	e52d0004 	push	{r0}		; (str r0, [sp, #-4]!)
30001990:	e10f0000 	mrs	r0, CPSR
30001994:	e38000c0 	orr	r0, r0, #192	; 0xc0
30001998:	e129f000 	msr	CPSR_fc, r0
3000199c:	e49d0004 	pop	{r0}		; (ldr r0, [sp], #4)
300019a0:	e59f30bc 	ldr	r3, [pc, #188]	; 30001a64 <OSMutexCreate+0x110>
300019a4:	e7932100 	ldr	r2, [r3, r0, lsl #2]
300019a8:	e3520000 	cmp	r2, #0
300019ac:	1a000019 	bne	30001a18 <OSMutexCreate+0xc4>
300019b0:	e59f20b0 	ldr	r2, [pc, #176]	; 30001a68 <OSMutexCreate+0x114>
300019b4:	e5924000 	ldr	r4, [r2]
300019b8:	e3a01001 	mov	r1, #1
300019bc:	e3540000 	cmp	r4, #0
300019c0:	e7831100 	str	r1, [r3, r0, lsl #2]
300019c4:	0a00001c 	beq	30001a3c <OSMutexCreate+0xe8>
300019c8:	e5941004 	ldr	r1, [r4, #4]
300019cc:	e5821000 	str	r1, [r2]
300019d0:	e52d0004 	push	{r0}		; (str r0, [sp, #-4]!)
300019d4:	e10f0000 	mrs	r0, CPSR
300019d8:	e3c000c0 	bic	r0, r0, #192	; 0xc0
300019dc:	e129f000 	msr	CPSR_fc, r0
300019e0:	e49d0004 	pop	{r0}		; (ldr r0, [sp], #4)
300019e4:	e1a06400 	lsl	r6, r0, #8
300019e8:	e386e0ff 	orr	lr, r6, #255	; 0xff
300019ec:	e3a03004 	mov	r3, #4
300019f0:	e3a06000 	mov	r6, #0
300019f4:	e5c43000 	strb	r3, [r4]
300019f8:	e1c4e0b2 	strh	lr, [r4, #2]
300019fc:	e5846004 	str	r6, [r4, #4]
30001a00:	e1a00004 	mov	r0, r4
30001a04:	eb000819 	bl	30003a70 <OS_EventWaitListInit>
30001a08:	e5c56000 	strb	r6, [r5]
30001a0c:	e1a00004 	mov	r0, r4
30001a10:	e8bd4070 	pop	{r4, r5, r6, lr}
30001a14:	e12fff1e 	bx	lr
30001a18:	e52d0004 	push	{r0}		; (str r0, [sp, #-4]!)
30001a1c:	e10f0000 	mrs	r0, CPSR
30001a20:	e3c000c0 	bic	r0, r0, #192	; 0xc0
30001a24:	e129f000 	msr	CPSR_fc, r0
30001a28:	e49d0004 	pop	{r0}		; (ldr r0, [sp], #4)
30001a2c:	e3a00028 	mov	r0, #40	; 0x28
30001a30:	e5c10000 	strb	r0, [r1]
30001a34:	e3a04000 	mov	r4, #0
30001a38:	eafffff3 	b	30001a0c <OSMutexCreate+0xb8>
30001a3c:	e7834100 	str	r4, [r3, r0, lsl #2]
30001a40:	e52d0004 	push	{r0}		; (str r0, [sp, #-4]!)
30001a44:	e10f0000 	mrs	r0, CPSR
30001a48:	e3c000c0 	bic	r0, r0, #192	; 0xc0
30001a4c:	e129f000 	msr	CPSR_fc, r0
30001a50:	e49d0004 	pop	{r0}		; (ldr r0, [sp], #4)
30001a54:	e3a0c004 	mov	ip, #4
30001a58:	e5c5c000 	strb	ip, [r5]
30001a5c:	eaffffea 	b	30001a0c <OSMutexCreate+0xb8>
30001a60:	3000597d 	andcc	r5, r0, sp, ror r9
30001a64:	30006414 	andcc	r6, r0, r4, lsl r4
30001a68:	30005978 	andcc	r5, r0, r8, ror r9

30001a6c <OSMutexDel>:
30001a6c:	e92d4070 	push	{r4, r5, r6, lr}
30001a70:	e59f3180 	ldr	r3, [pc, #384]	; 30001bf8 <OSMutexDel+0x18c>
30001a74:	e5d33000 	ldrb	r3, [r3]
30001a78:	e3530000 	cmp	r3, #0
30001a7c:	13e03073 	mvnne	r3, #115	; 0x73
30001a80:	e1a04000 	mov	r4, r0
30001a84:	e1a05002 	mov	r5, r2
30001a88:	15c23000 	strbne	r3, [r2]
30001a8c:	1a000008 	bne	30001ab4 <OSMutexDel+0x48>
30001a90:	e3500000 	cmp	r0, #0
30001a94:	03a03004 	moveq	r3, #4
30001a98:	05c23000 	strbeq	r3, [r2]
30001a9c:	0a000004 	beq	30001ab4 <OSMutexDel+0x48>
30001aa0:	e5d0c000 	ldrb	ip, [r0]
30001aa4:	e35c0004 	cmp	ip, #4
30001aa8:	13a0c001 	movne	ip, #1
30001aac:	15c2c000 	strbne	ip, [r2]
30001ab0:	0a000002 	beq	30001ac0 <OSMutexDel+0x54>
30001ab4:	e1a00004 	mov	r0, r4
30001ab8:	e8bd4070 	pop	{r4, r5, r6, lr}
30001abc:	e12fff1e 	bx	lr
30001ac0:	e52d0004 	push	{r0}		; (str r0, [sp, #-4]!)
30001ac4:	e10f0000 	mrs	r0, CPSR
30001ac8:	e38000c0 	orr	r0, r0, #192	; 0xc0
30001acc:	e129f000 	msr	CPSR_fc, r0
30001ad0:	e49d0004 	pop	{r0}		; (ldr r0, [sp], #4)
30001ad4:	e5d06001 	ldrb	r6, [r0, #1]
30001ad8:	e2566000 	subs	r6, r6, #0
30001adc:	13a06001 	movne	r6, #1
30001ae0:	e3510000 	cmp	r1, #0
30001ae4:	1a000009 	bne	30001b10 <OSMutexDel+0xa4>
30001ae8:	e3560000 	cmp	r6, #0
30001aec:	0a000030 	beq	30001bb4 <OSMutexDel+0x148>
30001af0:	e52d0004 	push	{r0}		; (str r0, [sp, #-4]!)
30001af4:	e10f0000 	mrs	r0, CPSR
30001af8:	e3c000c0 	bic	r0, r0, #192	; 0xc0
30001afc:	e129f000 	msr	CPSR_fc, r0
30001b00:	e49d0004 	pop	{r0}		; (ldr r0, [sp], #4)
30001b04:	e3a00008 	mov	r0, #8
30001b08:	e5c20000 	strb	r0, [r2]
30001b0c:	eaffffe8 	b	30001ab4 <OSMutexDel+0x48>
30001b10:	e3510001 	cmp	r1, #1
30001b14:	0a000007 	beq	30001b38 <OSMutexDel+0xcc>
30001b18:	e52d0004 	push	{r0}		; (str r0, [sp, #-4]!)
30001b1c:	e10f0000 	mrs	r0, CPSR
30001b20:	e3c000c0 	bic	r0, r0, #192	; 0xc0
30001b24:	e129f000 	msr	CPSR_fc, r0
30001b28:	e49d0004 	pop	{r0}		; (ldr r0, [sp], #4)
30001b2c:	e3a03007 	mov	r3, #7
30001b30:	e5c23000 	strb	r3, [r2]
30001b34:	eaffffde 	b	30001ab4 <OSMutexDel+0x48>
30001b38:	e3560000 	cmp	r6, #0
30001b3c:	0a000006 	beq	30001b5c <OSMutexDel+0xf0>
30001b40:	e3a02010 	mov	r2, #16
30001b44:	e1a00004 	mov	r0, r4
30001b48:	e3a01000 	mov	r1, #0
30001b4c:	eb00076c 	bl	30003904 <OS_EventTaskRdy>
30001b50:	e5d42001 	ldrb	r2, [r4, #1]
30001b54:	e3520000 	cmp	r2, #0
30001b58:	1afffff8 	bne	30001b40 <OSMutexDel+0xd4>
30001b5c:	e1d410b2 	ldrh	r1, [r4, #2]
30001b60:	e59f2094 	ldr	r2, [pc, #148]	; 30001bfc <OSMutexDel+0x190>
30001b64:	e3a0c000 	mov	ip, #0
30001b68:	e1a00421 	lsr	r0, r1, #8
30001b6c:	e782c100 	str	ip, [r2, r0, lsl #2]
30001b70:	e59f3088 	ldr	r3, [pc, #136]	; 30001c00 <OSMutexDel+0x194>
30001b74:	e5c4c000 	strb	ip, [r4]
30001b78:	e5931000 	ldr	r1, [r3]
30001b7c:	e5834000 	str	r4, [r3]
30001b80:	e5841004 	str	r1, [r4, #4]
30001b84:	e52d0004 	push	{r0}		; (str r0, [sp, #-4]!)
30001b88:	e10f0000 	mrs	r0, CPSR
30001b8c:	e3c000c0 	bic	r0, r0, #192	; 0xc0
30001b90:	e129f000 	msr	CPSR_fc, r0
30001b94:	e49d0004 	pop	{r0}		; (ldr r0, [sp], #4)
30001b98:	e3560001 	cmp	r6, #1
30001b9c:	0a000002 	beq	30001bac <OSMutexDel+0x140>
30001ba0:	e3a04000 	mov	r4, #0
30001ba4:	e5c54000 	strb	r4, [r5]
30001ba8:	eaffffc1 	b	30001ab4 <OSMutexDel+0x48>
30001bac:	eb0007b4 	bl	30003a84 <OS_Sched>
30001bb0:	eafffffa 	b	30001ba0 <OSMutexDel+0x134>
30001bb4:	e1d0c0b2 	ldrh	ip, [r0, #2]
30001bb8:	e59f303c 	ldr	r3, [pc, #60]	; 30001bfc <OSMutexDel+0x190>
30001bbc:	e1a0442c 	lsr	r4, ip, #8
30001bc0:	e7836104 	str	r6, [r3, r4, lsl #2]
30001bc4:	e59f1034 	ldr	r1, [pc, #52]	; 30001c00 <OSMutexDel+0x194>
30001bc8:	e5c06000 	strb	r6, [r0]
30001bcc:	e5912000 	ldr	r2, [r1]
30001bd0:	e5810000 	str	r0, [r1]
30001bd4:	e5802004 	str	r2, [r0, #4]
30001bd8:	e52d0004 	push	{r0}		; (str r0, [sp, #-4]!)
30001bdc:	e10f0000 	mrs	r0, CPSR
30001be0:	e3c000c0 	bic	r0, r0, #192	; 0xc0
30001be4:	e129f000 	msr	CPSR_fc, r0
30001be8:	e49d0004 	pop	{r0}		; (ldr r0, [sp], #4)
30001bec:	e3a04000 	mov	r4, #0
30001bf0:	e5c54000 	strb	r4, [r5]
30001bf4:	eaffffae 	b	30001ab4 <OSMutexDel+0x48>
30001bf8:	3000597d 	andcc	r5, r0, sp, ror r9
30001bfc:	30006414 	andcc	r6, r0, r4, lsl r4
30001c00:	30005978 	andcc	r5, r0, r8, ror r9

30001c04 <OSMutexPend>:
30001c04:	e92d47f0 	push	{r4, r5, r6, r7, r8, r9, sl, lr}
30001c08:	e59f3240 	ldr	r3, [pc, #576]	; 30001e50 <OSMutexPend+0x24c>
30001c0c:	e5d33000 	ldrb	r3, [r3]
30001c10:	e3530000 	cmp	r3, #0
30001c14:	13a03002 	movne	r3, #2
30001c18:	e24dd008 	sub	sp, sp, #8
30001c1c:	e1a04000 	mov	r4, r0
30001c20:	15c23000 	strbne	r3, [r2]
30001c24:	1a000008 	bne	30001c4c <OSMutexPend+0x48>
30001c28:	e3500000 	cmp	r0, #0
30001c2c:	03a03004 	moveq	r3, #4
30001c30:	05c23000 	strbeq	r3, [r2]
30001c34:	0a000004 	beq	30001c4c <OSMutexPend+0x48>
30001c38:	e5d0c000 	ldrb	ip, [r0]
30001c3c:	e35c0004 	cmp	ip, #4
30001c40:	13a0c001 	movne	ip, #1
30001c44:	15c2c000 	strbne	ip, [r2]
30001c48:	0a000002 	beq	30001c58 <OSMutexPend+0x54>
30001c4c:	e28dd008 	add	sp, sp, #8
30001c50:	e8bd47f0 	pop	{r4, r5, r6, r7, r8, r9, sl, lr}
30001c54:	e12fff1e 	bx	lr
30001c58:	e52d0004 	push	{r0}		; (str r0, [sp, #-4]!)
30001c5c:	e10f0000 	mrs	r0, CPSR
30001c60:	e38000c0 	orr	r0, r0, #192	; 0xc0
30001c64:	e129f000 	msr	CPSR_fc, r0
30001c68:	e49d0004 	pop	{r0}		; (ldr r0, [sp], #4)
30001c6c:	e1d030b2 	ldrh	r3, [r0, #2]
30001c70:	e20300ff 	and	r0, r3, #255	; 0xff
30001c74:	e35000ff 	cmp	r0, #255	; 0xff
30001c78:	0a00003d 	beq	30001d74 <OSMutexPend+0x170>
30001c7c:	e594e004 	ldr	lr, [r4, #4]
30001c80:	e1a03423 	lsr	r3, r3, #8
30001c84:	e5de502d 	ldrb	r5, [lr, #45]	; 0x2d
30001c88:	e20360ff 	and	r6, r3, #255	; 0xff
30001c8c:	e1550006 	cmp	r5, r6
30001c90:	0a000060 	beq	30001e18 <OSMutexPend+0x214>
30001c94:	e59f51b8 	ldr	r5, [pc, #440]	; 30001e54 <OSMutexPend+0x250>
30001c98:	e595c000 	ldr	ip, [r5]
30001c9c:	e5dc702d 	ldrb	r7, [ip, #45]	; 0x2d
30001ca0:	e1570000 	cmp	r7, r0
30001ca4:	2a000012 	bcs	30001cf4 <OSMutexPend+0xf0>
30001ca8:	e5dec02f 	ldrb	ip, [lr, #47]	; 0x2f
30001cac:	e59f01a4 	ldr	r0, [pc, #420]	; 30001e58 <OSMutexPend+0x254>
30001cb0:	e5de8030 	ldrb	r8, [lr, #48]	; 0x30
30001cb4:	e7d0700c 	ldrb	r7, [r0, ip]
30001cb8:	e1170008 	tst	r7, r8
30001cbc:	1a00003c 	bne	30001db4 <OSMutexPend+0x1b0>
30001cc0:	e59fc194 	ldr	ip, [pc, #404]	; 30001e5c <OSMutexPend+0x258>
30001cc4:	e1a001a6 	lsr	r0, r6, #3
30001cc8:	e2033007 	and	r3, r3, #7
30001ccc:	e7dc7000 	ldrb	r7, [ip, r0]
30001cd0:	e7dcc003 	ldrb	ip, [ip, r3]
30001cd4:	e5ce602d 	strb	r6, [lr, #45]	; 0x2d
30001cd8:	e5ce002f 	strb	r0, [lr, #47]	; 0x2f
30001cdc:	e5ce7031 	strb	r7, [lr, #49]	; 0x31
30001ce0:	e5ce302e 	strb	r3, [lr, #46]	; 0x2e
30001ce4:	e5cec030 	strb	ip, [lr, #48]	; 0x30
30001ce8:	e59f0170 	ldr	r0, [pc, #368]	; 30001e60 <OSMutexPend+0x25c>
30001cec:	e595c000 	ldr	ip, [r5]
30001cf0:	e780e106 	str	lr, [r0, r6, lsl #2]
30001cf4:	e5dc302c 	ldrb	r3, [ip, #44]	; 0x2c
30001cf8:	e383e010 	orr	lr, r3, #16
30001cfc:	e5cce02c 	strb	lr, [ip, #44]	; 0x2c
30001d00:	e1cc12ba 	strh	r1, [ip, #42]	; 0x2a
30001d04:	e1a00004 	mov	r0, r4
30001d08:	e58d2004 	str	r2, [sp, #4]
30001d0c:	eb000728 	bl	300039b4 <OS_EventTaskWait>
30001d10:	e52d0004 	push	{r0}		; (str r0, [sp, #-4]!)
30001d14:	e10f0000 	mrs	r0, CPSR
30001d18:	e3c000c0 	bic	r0, r0, #192	; 0xc0
30001d1c:	e129f000 	msr	CPSR_fc, r0
30001d20:	e49d0004 	pop	{r0}		; (ldr r0, [sp], #4)
30001d24:	eb000756 	bl	30003a84 <OS_Sched>
30001d28:	e52d0004 	push	{r0}		; (str r0, [sp, #-4]!)
30001d2c:	e10f0000 	mrs	r0, CPSR
30001d30:	e38000c0 	orr	r0, r0, #192	; 0xc0
30001d34:	e129f000 	msr	CPSR_fc, r0
30001d38:	e49d0004 	pop	{r0}		; (ldr r0, [sp], #4)
30001d3c:	e5951000 	ldr	r1, [r5]
30001d40:	e5d1202c 	ldrb	r2, [r1, #44]	; 0x2c
30001d44:	e2123010 	ands	r3, r2, #16
30001d48:	e59d2004 	ldr	r2, [sp, #4]
30001d4c:	1a000034 	bne	30001e24 <OSMutexPend+0x220>
30001d50:	e581301c 	str	r3, [r1, #28]
30001d54:	e52d0004 	push	{r0}		; (str r0, [sp, #-4]!)
30001d58:	e10f0000 	mrs	r0, CPSR
30001d5c:	e3c000c0 	bic	r0, r0, #192	; 0xc0
30001d60:	e129f000 	msr	CPSR_fc, r0
30001d64:	e49d0004 	pop	{r0}		; (ldr r0, [sp], #4)
30001d68:	e3a00000 	mov	r0, #0
30001d6c:	e5c20000 	strb	r0, [r2]
30001d70:	eaffffb5 	b	30001c4c <OSMutexPend+0x48>
30001d74:	e59f10d8 	ldr	r1, [pc, #216]	; 30001e54 <OSMutexPend+0x250>
30001d78:	e203ccff 	and	ip, r3, #65280	; 0xff00
30001d7c:	e5911000 	ldr	r1, [r1]
30001d80:	e1c4c0b2 	strh	ip, [r4, #2]
30001d84:	e5d1002d 	ldrb	r0, [r1, #45]	; 0x2d
30001d88:	e18c3000 	orr	r3, ip, r0
30001d8c:	e1c430b2 	strh	r3, [r4, #2]
30001d90:	e5841004 	str	r1, [r4, #4]
30001d94:	e52d0004 	push	{r0}		; (str r0, [sp, #-4]!)
30001d98:	e10f0000 	mrs	r0, CPSR
30001d9c:	e3c000c0 	bic	r0, r0, #192	; 0xc0
30001da0:	e129f000 	msr	CPSR_fc, r0
30001da4:	e49d0004 	pop	{r0}		; (ldr r0, [sp], #4)
30001da8:	e3a00000 	mov	r0, #0
30001dac:	e5c20000 	strb	r0, [r2]
30001db0:	eaffffa5 	b	30001c4c <OSMutexPend+0x48>
30001db4:	e1c77008 	bic	r7, r7, r8
30001db8:	e7c0700c 	strb	r7, [r0, ip]
30001dbc:	e59f30a0 	ldr	r3, [pc, #160]	; 30001e64 <OSMutexPend+0x260>
30001dc0:	e3570000 	cmp	r7, #0
30001dc4:	05de7031 	ldrbeq	r7, [lr, #49]	; 0x31
30001dc8:	05d3c000 	ldrbeq	ip, [r3]
30001dcc:	e59f9088 	ldr	r9, [pc, #136]	; 30001e5c <OSMutexPend+0x258>
30001dd0:	01ccc007 	biceq	ip, ip, r7
30001dd4:	05c3c000 	strbeq	ip, [r3]
30001dd8:	e206a007 	and	sl, r6, #7
30001ddc:	e1a0c1a6 	lsr	ip, r6, #3
30001de0:	e7d9700a 	ldrb	r7, [r9, sl]
30001de4:	e7d9800c 	ldrb	r8, [r9, ip]
30001de8:	e5ce7030 	strb	r7, [lr, #48]	; 0x30
30001dec:	e5ce8031 	strb	r8, [lr, #49]	; 0x31
30001df0:	e5ce602d 	strb	r6, [lr, #45]	; 0x2d
30001df4:	e5cec02f 	strb	ip, [lr, #47]	; 0x2f
30001df8:	e5cea02e 	strb	sl, [lr, #46]	; 0x2e
30001dfc:	e5d39000 	ldrb	r9, [r3]
30001e00:	e7d0a00c 	ldrb	sl, [r0, ip]
30001e04:	e1888009 	orr	r8, r8, r9
30001e08:	e187700a 	orr	r7, r7, sl
30001e0c:	e5c38000 	strb	r8, [r3]
30001e10:	e7c0700c 	strb	r7, [r0, ip]
30001e14:	eaffffb3 	b	30001ce8 <OSMutexPend+0xe4>
30001e18:	e59f5034 	ldr	r5, [pc, #52]	; 30001e54 <OSMutexPend+0x250>
30001e1c:	e595c000 	ldr	ip, [r5]
30001e20:	eaffffb3 	b	30001cf4 <OSMutexPend+0xf0>
30001e24:	e1a00004 	mov	r0, r4
30001e28:	eb0006fe 	bl	30003a28 <OS_EventTO>
30001e2c:	e52d0004 	push	{r0}		; (str r0, [sp, #-4]!)
30001e30:	e10f0000 	mrs	r0, CPSR
30001e34:	e3c000c0 	bic	r0, r0, #192	; 0xc0
30001e38:	e129f000 	msr	CPSR_fc, r0
30001e3c:	e49d0004 	pop	{r0}		; (ldr r0, [sp], #4)
30001e40:	e59d1004 	ldr	r1, [sp, #4]
30001e44:	e3a0c00a 	mov	ip, #10
30001e48:	e5c1c000 	strb	ip, [r1]
30001e4c:	eaffff7e 	b	30001c4c <OSMutexPend+0x48>
30001e50:	3000597d 	andcc	r5, r0, sp, ror r9
30001e54:	30005980 	andcc	r5, r0, r0, lsl #19
30001e58:	30005970 	andcc	r5, r0, r0, ror r9
30001e5c:	30005694 	mulcc	r0, r4, r6
30001e60:	30006414 	andcc	r6, r0, r4, lsl r4
30001e64:	3000596c 	andcc	r5, r0, ip, ror #18

30001e68 <OSMutexPost>:
30001e68:	e92d47f0 	push	{r4, r5, r6, r7, r8, r9, sl, lr}
30001e6c:	e59f1194 	ldr	r1, [pc, #404]	; 30002008 <OSMutexPost+0x1a0>
30001e70:	e5d13000 	ldrb	r3, [r1]
30001e74:	e3530000 	cmp	r3, #0
30001e78:	e1a04000 	mov	r4, r0
30001e7c:	13a00005 	movne	r0, #5
30001e80:	1a000006 	bne	30001ea0 <OSMutexPost+0x38>
30001e84:	e3500000 	cmp	r0, #0
30001e88:	03a00004 	moveq	r0, #4
30001e8c:	0a000003 	beq	30001ea0 <OSMutexPost+0x38>
30001e90:	e5d02000 	ldrb	r2, [r0]
30001e94:	e3520004 	cmp	r2, #4
30001e98:	13a00001 	movne	r0, #1
30001e9c:	0a000001 	beq	30001ea8 <OSMutexPost+0x40>
30001ea0:	e8bd47f0 	pop	{r4, r5, r6, r7, r8, r9, sl, lr}
30001ea4:	e12fff1e 	bx	lr
30001ea8:	e52d0004 	push	{r0}		; (str r0, [sp, #-4]!)
30001eac:	e10f0000 	mrs	r0, CPSR
30001eb0:	e38000c0 	orr	r0, r0, #192	; 0xc0
30001eb4:	e129f000 	msr	CPSR_fc, r0
30001eb8:	e49d0004 	pop	{r0}		; (ldr r0, [sp], #4)
30001ebc:	e59f3148 	ldr	r3, [pc, #328]	; 3000200c <OSMutexPost+0x1a4>
30001ec0:	e5932000 	ldr	r2, [r3]
30001ec4:	e1d0c0b2 	ldrh	ip, [r0, #2]
30001ec8:	e5d2102d 	ldrb	r1, [r2, #45]	; 0x2d
30001ecc:	e1a0042c 	lsr	r0, ip, #8
30001ed0:	e1510000 	cmp	r1, r0
30001ed4:	e20c30ff 	and	r3, ip, #255	; 0xff
30001ed8:	0a000009 	beq	30001f04 <OSMutexPost+0x9c>
30001edc:	e1530001 	cmp	r3, r1
30001ee0:	059f1128 	ldreq	r1, [pc, #296]	; 30002010 <OSMutexPost+0x1a8>
30001ee4:	0a000024 	beq	30001f7c <OSMutexPost+0x114>
30001ee8:	e52d0004 	push	{r0}		; (str r0, [sp, #-4]!)
30001eec:	e10f0000 	mrs	r0, CPSR
30001ef0:	e3c000c0 	bic	r0, r0, #192	; 0xc0
30001ef4:	e129f000 	msr	CPSR_fc, r0
30001ef8:	e49d0004 	pop	{r0}		; (ldr r0, [sp], #4)
30001efc:	e3a00078 	mov	r0, #120	; 0x78
30001f00:	eaffffe6 	b	30001ea0 <OSMutexPost+0x38>
30001f04:	e5d2102f 	ldrb	r1, [r2, #47]	; 0x2f
30001f08:	e59f5104 	ldr	r5, [pc, #260]	; 30002014 <OSMutexPost+0x1ac>
30001f0c:	e5d26030 	ldrb	r6, [r2, #48]	; 0x30
30001f10:	e7d57001 	ldrb	r7, [r5, r1]
30001f14:	e1c7c006 	bic	ip, r7, r6
30001f18:	e7c5c001 	strb	ip, [r5, r1]
30001f1c:	e59f60f4 	ldr	r6, [pc, #244]	; 30002018 <OSMutexPost+0x1b0>
30001f20:	e35c0000 	cmp	ip, #0
30001f24:	05d2c031 	ldrbeq	ip, [r2, #49]	; 0x31
30001f28:	05d61000 	ldrbeq	r1, [r6]
30001f2c:	e59fa0e8 	ldr	sl, [pc, #232]	; 3000201c <OSMutexPost+0x1b4>
30001f30:	01c1100c 	biceq	r1, r1, ip
30001f34:	e2039007 	and	r9, r3, #7
30001f38:	e1a0c1a3 	lsr	ip, r3, #3
30001f3c:	e7da7009 	ldrb	r7, [sl, r9]
30001f40:	e7da800c 	ldrb	r8, [sl, ip]
30001f44:	e5c27030 	strb	r7, [r2, #48]	; 0x30
30001f48:	e5c28031 	strb	r8, [r2, #49]	; 0x31
30001f4c:	e5c2302d 	strb	r3, [r2, #45]	; 0x2d
30001f50:	e5c2c02f 	strb	ip, [r2, #47]	; 0x2f
30001f54:	e5c2902e 	strb	r9, [r2, #46]	; 0x2e
30001f58:	05c61000 	strbeq	r1, [r6]
30001f5c:	e7d5a00c 	ldrb	sl, [r5, ip]
30001f60:	e5d69000 	ldrb	r9, [r6]
30001f64:	e59f10a4 	ldr	r1, [pc, #164]	; 30002010 <OSMutexPost+0x1a8>
30001f68:	e1888009 	orr	r8, r8, r9
30001f6c:	e187700a 	orr	r7, r7, sl
30001f70:	e5c68000 	strb	r8, [r6]
30001f74:	e7c5700c 	strb	r7, [r5, ip]
30001f78:	e7812103 	str	r2, [r1, r3, lsl #2]
30001f7c:	e3a02001 	mov	r2, #1
30001f80:	e7812100 	str	r2, [r1, r0, lsl #2]
30001f84:	e5d43001 	ldrb	r3, [r4, #1]
30001f88:	e3530000 	cmp	r3, #0
30001f8c:	1a00000a 	bne	30001fbc <OSMutexPost+0x154>
30001f90:	e1d410b2 	ldrh	r1, [r4, #2]
30001f94:	e38100ff 	orr	r0, r1, #255	; 0xff
30001f98:	e1c400b2 	strh	r0, [r4, #2]
30001f9c:	e5843004 	str	r3, [r4, #4]
30001fa0:	e52d0004 	push	{r0}		; (str r0, [sp, #-4]!)
30001fa4:	e10f0000 	mrs	r0, CPSR
30001fa8:	e3c000c0 	bic	r0, r0, #192	; 0xc0
30001fac:	e129f000 	msr	CPSR_fc, r0
30001fb0:	e49d0004 	pop	{r0}		; (ldr r0, [sp], #4)
30001fb4:	e3a00000 	mov	r0, #0
30001fb8:	eaffffb8 	b	30001ea0 <OSMutexPost+0x38>
30001fbc:	e1a00004 	mov	r0, r4
30001fc0:	e3a01000 	mov	r1, #0
30001fc4:	e3a02010 	mov	r2, #16
30001fc8:	eb00064d 	bl	30003904 <OS_EventTaskRdy>
30001fcc:	e1d4c0b2 	ldrh	ip, [r4, #2]
30001fd0:	e59f2038 	ldr	r2, [pc, #56]	; 30002010 <OSMutexPost+0x1a8>
30001fd4:	e3cc10ff 	bic	r1, ip, #255	; 0xff
30001fd8:	e7923100 	ldr	r3, [r2, r0, lsl #2]
30001fdc:	e1800001 	orr	r0, r0, r1
30001fe0:	e1c400b2 	strh	r0, [r4, #2]
30001fe4:	e5843004 	str	r3, [r4, #4]
30001fe8:	e52d0004 	push	{r0}		; (str r0, [sp, #-4]!)
30001fec:	e10f0000 	mrs	r0, CPSR
30001ff0:	e3c000c0 	bic	r0, r0, #192	; 0xc0
30001ff4:	e129f000 	msr	CPSR_fc, r0
30001ff8:	e49d0004 	pop	{r0}		; (ldr r0, [sp], #4)
30001ffc:	eb0006a0 	bl	30003a84 <OS_Sched>
30002000:	e3a00000 	mov	r0, #0
30002004:	eaffffa5 	b	30001ea0 <OSMutexPost+0x38>
30002008:	3000597d 	andcc	r5, r0, sp, ror r9
3000200c:	30005980 	andcc	r5, r0, r0, lsl #19
30002010:	30006414 	andcc	r6, r0, r4, lsl r4
30002014:	30005970 	andcc	r5, r0, r0, ror r9
30002018:	3000596c 	andcc	r5, r0, ip, ror #18
3000201c:	30005694 	mulcc	r0, r4, r6

30002020 <OSMutexQuery>:
30002020:	e59f2098 	ldr	r2, [pc, #152]	; 300020c0 <OSMutexQuery+0xa0>
30002024:	e5d23000 	ldrb	r3, [r2]
30002028:	e3530000 	cmp	r3, #0
3000202c:	13a00006 	movne	r0, #6
30002030:	112fff1e 	bxne	lr
30002034:	e3500000 	cmp	r0, #0
30002038:	03a00004 	moveq	r0, #4
3000203c:	012fff1e 	bxeq	lr
30002040:	e5d0c000 	ldrb	ip, [r0]
30002044:	e35c0004 	cmp	ip, #4
30002048:	0a000001 	beq	30002054 <OSMutexQuery+0x34>
3000204c:	e3a00001 	mov	r0, #1
30002050:	e12fff1e 	bx	lr
30002054:	e52d0004 	push	{r0}		; (str r0, [sp, #-4]!)
30002058:	e10f0000 	mrs	r0, CPSR
3000205c:	e38000c0 	orr	r0, r0, #192	; 0xc0
30002060:	e129f000 	msr	CPSR_fc, r0
30002064:	e49d0004 	pop	{r0}		; (ldr r0, [sp], #4)
30002068:	e1d020b2 	ldrh	r2, [r0, #2]
3000206c:	e1a03422 	lsr	r3, r2, #8
30002070:	e5c13005 	strb	r3, [r1, #5]
30002074:	e5d0c002 	ldrb	ip, [r0, #2]
30002078:	e35c00ff 	cmp	ip, #255	; 0xff
3000207c:	e5c1c004 	strb	ip, [r1, #4]
30002080:	03a0c001 	moveq	ip, #1
30002084:	13a0c000 	movne	ip, #0
30002088:	e5c1c003 	strb	ip, [r1, #3]
3000208c:	e5d02001 	ldrb	r2, [r0, #1]
30002090:	e5c12002 	strb	r2, [r1, #2]
30002094:	e5d03008 	ldrb	r3, [r0, #8]
30002098:	e5c13000 	strb	r3, [r1]
3000209c:	e5d00009 	ldrb	r0, [r0, #9]
300020a0:	e5c10001 	strb	r0, [r1, #1]
300020a4:	e52d0004 	push	{r0}		; (str r0, [sp, #-4]!)
300020a8:	e10f0000 	mrs	r0, CPSR
300020ac:	e3c000c0 	bic	r0, r0, #192	; 0xc0
300020b0:	e129f000 	msr	CPSR_fc, r0
300020b4:	e49d0004 	pop	{r0}		; (ldr r0, [sp], #4)
300020b8:	e3a00000 	mov	r0, #0
300020bc:	e12fff1e 	bx	lr
300020c0:	3000597d 	andcc	r5, r0, sp, ror r9

300020c4 <timer0_init>:
300020c4:	e3a03451 	mov	r3, #1358954496	; 0x51000000
300020c8:	e5931000 	ldr	r1, [r3]
300020cc:	e3c100ff 	bic	r0, r1, #255	; 0xff
300020d0:	e5830000 	str	r0, [r3]
300020d4:	e5932000 	ldr	r2, [r3]
300020d8:	e382c07c 	orr	ip, r2, #124	; 0x7c
300020dc:	e583c000 	str	ip, [r3]
300020e0:	e5931004 	ldr	r1, [r3, #4]
300020e4:	e3c1000f 	bic	r0, r1, #15
300020e8:	e5830004 	str	r0, [r3, #4]
300020ec:	e5932004 	ldr	r2, [r3, #4]
300020f0:	e59f1030 	ldr	r1, [pc, #48]	; 30002128 <timer0_init+0x64>
300020f4:	e382c002 	orr	ip, r2, #2
300020f8:	e583c004 	str	ip, [r3, #4]
300020fc:	e583100c 	str	r1, [r3, #12]
30002100:	e5930008 	ldr	r0, [r3, #8]
30002104:	e3802002 	orr	r2, r0, #2
30002108:	e5832008 	str	r2, [r3, #8]
3000210c:	e593c008 	ldr	ip, [r3, #8]
30002110:	e3cc101f 	bic	r1, ip, #31
30002114:	e5831008 	str	r1, [r3, #8]
30002118:	e5930008 	ldr	r0, [r3, #8]
3000211c:	e3802009 	orr	r2, r0, #9
30002120:	e5832008 	str	r2, [r3, #8]
30002124:	e12fff1e 	bx	lr
30002128:	0000c350 	andeq	ip, r0, r0, asr r3

3000212c <timer4_init>:
3000212c:	e3a03451 	mov	r3, #1358954496	; 0x51000000
30002130:	e5931000 	ldr	r1, [r3]
30002134:	e3c10cff 	bic	r0, r1, #65280	; 0xff00
30002138:	e5830000 	str	r0, [r3]
3000213c:	e5932000 	ldr	r2, [r3]
30002140:	e382cb1f 	orr	ip, r2, #31744	; 0x7c00
30002144:	e583c000 	str	ip, [r3]
30002148:	e5931004 	ldr	r1, [r3, #4]
3000214c:	e3c1080f 	bic	r0, r1, #983040	; 0xf0000
30002150:	e5830004 	str	r0, [r3, #4]
30002154:	e5932004 	ldr	r2, [r3, #4]
30002158:	e59f1030 	ldr	r1, [pc, #48]	; 30002190 <timer4_init+0x64>
3000215c:	e382c802 	orr	ip, r2, #131072	; 0x20000
30002160:	e583c004 	str	ip, [r3, #4]
30002164:	e583103c 	str	r1, [r3, #60]	; 0x3c
30002168:	e5930008 	ldr	r0, [r3, #8]
3000216c:	e3802602 	orr	r2, r0, #2097152	; 0x200000
30002170:	e5832008 	str	r2, [r3, #8]
30002174:	e593c008 	ldr	ip, [r3, #8]
30002178:	e3cc1607 	bic	r1, ip, #7340032	; 0x700000
3000217c:	e5831008 	str	r1, [r3, #8]
30002180:	e5930008 	ldr	r0, [r3, #8]
30002184:	e3802605 	orr	r2, r0, #5242880	; 0x500000
30002188:	e5832008 	str	r2, [r3, #8]
3000218c:	e12fff1e 	bx	lr
30002190:	0000c350 	andeq	ip, r0, r0, asr r3

30002194 <OSTaskChangePrio>:
30002194:	e240200c 	sub	r2, r0, #12
30002198:	e20230ff 	and	r3, r2, #255	; 0xff
3000219c:	e35300f2 	cmp	r3, #242	; 0xf2
300021a0:	83a03000 	movhi	r3, #0
300021a4:	93a03001 	movls	r3, #1
300021a8:	e351000b 	cmp	r1, #11
300021ac:	83833001 	orrhi	r3, r3, #1
300021b0:	e3530000 	cmp	r3, #0
300021b4:	e92d41f0 	push	{r4, r5, r6, r7, r8, lr}
300021b8:	13a0002a 	movne	r0, #42	; 0x2a
300021bc:	1a00000e 	bne	300021fc <OSTaskChangePrio+0x68>
300021c0:	e52d0004 	push	{r0}		; (str r0, [sp, #-4]!)
300021c4:	e10f0000 	mrs	r0, CPSR
300021c8:	e38000c0 	orr	r0, r0, #192	; 0xc0
300021cc:	e129f000 	msr	CPSR_fc, r0
300021d0:	e49d0004 	pop	{r0}		; (ldr r0, [sp], #4)
300021d4:	e59f3184 	ldr	r3, [pc, #388]	; 30002360 <OSTaskChangePrio+0x1cc>
300021d8:	e793c101 	ldr	ip, [r3, r1, lsl #2]
300021dc:	e35c0000 	cmp	ip, #0
300021e0:	0a000007 	beq	30002204 <OSTaskChangePrio+0x70>
300021e4:	e52d0004 	push	{r0}		; (str r0, [sp, #-4]!)
300021e8:	e10f0000 	mrs	r0, CPSR
300021ec:	e3c000c0 	bic	r0, r0, #192	; 0xc0
300021f0:	e129f000 	msr	CPSR_fc, r0
300021f4:	e49d0004 	pop	{r0}		; (ldr r0, [sp], #4)
300021f8:	e3a00028 	mov	r0, #40	; 0x28
300021fc:	e8bd41f0 	pop	{r4, r5, r6, r7, r8, lr}
30002200:	e12fff1e 	bx	lr
30002204:	e3a04001 	mov	r4, #1
30002208:	e7834101 	str	r4, [r3, r1, lsl #2]
3000220c:	e52d0004 	push	{r0}		; (str r0, [sp, #-4]!)
30002210:	e10f0000 	mrs	r0, CPSR
30002214:	e3c000c0 	bic	r0, r0, #192	; 0xc0
30002218:	e129f000 	msr	CPSR_fc, r0
3000221c:	e49d0004 	pop	{r0}		; (ldr r0, [sp], #4)
30002220:	e59f713c 	ldr	r7, [pc, #316]	; 30002364 <OSTaskChangePrio+0x1d0>
30002224:	e1a0c1a1 	lsr	ip, r1, #3
30002228:	e2014007 	and	r4, r1, #7
3000222c:	e7d7600c 	ldrb	r6, [r7, ip]
30002230:	e7d75004 	ldrb	r5, [r7, r4]
30002234:	e52d0004 	push	{r0}		; (str r0, [sp, #-4]!)
30002238:	e10f0000 	mrs	r0, CPSR
3000223c:	e38000c0 	orr	r0, r0, #192	; 0xc0
30002240:	e129f000 	msr	CPSR_fc, r0
30002244:	e49d0004 	pop	{r0}		; (ldr r0, [sp], #4)
30002248:	e35000ff 	cmp	r0, #255	; 0xff
3000224c:	059f7114 	ldreq	r7, [pc, #276]	; 30002368 <OSTaskChangePrio+0x1d4>
30002250:	05977000 	ldreq	r7, [r7]
30002254:	05d7002d 	ldrbeq	r0, [r7, #45]	; 0x2d
30002258:	e7932100 	ldr	r2, [r3, r0, lsl #2]
3000225c:	e3520000 	cmp	r2, #0
30002260:	e59f70f8 	ldr	r7, [pc, #248]	; 30002360 <OSTaskChangePrio+0x1cc>
30002264:	0a000035 	beq	30002340 <OSTaskChangePrio+0x1ac>
30002268:	e3a0e000 	mov	lr, #0
3000226c:	e787e100 	str	lr, [r7, r0, lsl #2]
30002270:	e59f00f4 	ldr	r0, [pc, #244]	; 3000236c <OSTaskChangePrio+0x1d8>
30002274:	e5d2702f 	ldrb	r7, [r2, #47]	; 0x2f
30002278:	e5d2e030 	ldrb	lr, [r2, #48]	; 0x30
3000227c:	e7d08007 	ldrb	r8, [r0, r7]
30002280:	e118000e 	tst	r8, lr
30002284:	0a00001a 	beq	300022f4 <OSTaskChangePrio+0x160>
30002288:	e1c8e00e 	bic	lr, r8, lr
3000228c:	e35e0000 	cmp	lr, #0
30002290:	e7c0e007 	strb	lr, [r0, r7]
30002294:	e59fe0d4 	ldr	lr, [pc, #212]	; 30002370 <OSTaskChangePrio+0x1dc>
30002298:	05d28031 	ldrbeq	r8, [r2, #49]	; 0x31
3000229c:	05de7000 	ldrbeq	r7, [lr]
300022a0:	15de8000 	ldrbne	r8, [lr]
300022a4:	01c78008 	biceq	r8, r7, r8
300022a8:	e7d0700c 	ldrb	r7, [r0, ip]
300022ac:	e1888006 	orr	r8, r8, r6
300022b0:	e1857007 	orr	r7, r5, r7
300022b4:	e5ce8000 	strb	r8, [lr]
300022b8:	e7c0700c 	strb	r7, [r0, ip]
300022bc:	e7832101 	str	r2, [r3, r1, lsl #2]
300022c0:	e5c2102d 	strb	r1, [r2, #45]	; 0x2d
300022c4:	e5c2c02f 	strb	ip, [r2, #47]	; 0x2f
300022c8:	e5c2402e 	strb	r4, [r2, #46]	; 0x2e
300022cc:	e5c26031 	strb	r6, [r2, #49]	; 0x31
300022d0:	e5c25030 	strb	r5, [r2, #48]	; 0x30
300022d4:	e52d0004 	push	{r0}		; (str r0, [sp, #-4]!)
300022d8:	e10f0000 	mrs	r0, CPSR
300022dc:	e3c000c0 	bic	r0, r0, #192	; 0xc0
300022e0:	e129f000 	msr	CPSR_fc, r0
300022e4:	e49d0004 	pop	{r0}		; (ldr r0, [sp], #4)
300022e8:	eb0005e5 	bl	30003a84 <OS_Sched>
300022ec:	e3a00000 	mov	r0, #0
300022f0:	eaffffc1 	b	300021fc <OSTaskChangePrio+0x68>
300022f4:	e592001c 	ldr	r0, [r2, #28]
300022f8:	e3500000 	cmp	r0, #0
300022fc:	0affffee 	beq	300022bc <OSTaskChangePrio+0x128>
30002300:	e0807007 	add	r7, r0, r7
30002304:	e5d78008 	ldrb	r8, [r7, #8]
30002308:	e1c8e00e 	bic	lr, r8, lr
3000230c:	e5c7e008 	strb	lr, [r7, #8]
30002310:	e35e0000 	cmp	lr, #0
30002314:	05d28031 	ldrbeq	r8, [r2, #49]	; 0x31
30002318:	05d0e001 	ldrbeq	lr, [r0, #1]
3000231c:	01ce8008 	biceq	r8, lr, r8
30002320:	e080e00c 	add	lr, r0, ip
30002324:	15d08001 	ldrbne	r8, [r0, #1]
30002328:	e5de7008 	ldrb	r7, [lr, #8]
3000232c:	e1888006 	orr	r8, r8, r6
30002330:	e1857007 	orr	r7, r5, r7
30002334:	e5c08001 	strb	r8, [r0, #1]
30002338:	e5ce7008 	strb	r7, [lr, #8]
3000233c:	eaffffde 	b	300022bc <OSTaskChangePrio+0x128>
30002340:	e7872101 	str	r2, [r7, r1, lsl #2]
30002344:	e52d0004 	push	{r0}		; (str r0, [sp, #-4]!)
30002348:	e10f0000 	mrs	r0, CPSR
3000234c:	e3c000c0 	bic	r0, r0, #192	; 0xc0
30002350:	e129f000 	msr	CPSR_fc, r0
30002354:	e49d0004 	pop	{r0}		; (ldr r0, [sp], #4)
30002358:	e3a00029 	mov	r0, #41	; 0x29
3000235c:	eaffffa6 	b	300021fc <OSTaskChangePrio+0x68>
30002360:	30006414 	andcc	r6, r0, r4, lsl r4
30002364:	30005694 	mulcc	r0, r4, r6
30002368:	30005980 	andcc	r5, r0, r0, lsl #19
3000236c:	30005970 	andcc	r5, r0, r0, ror r9
30002370:	3000596c 	andcc	r5, r0, ip, ror #18

30002374 <OSTaskCreate>:
30002374:	e92d4030 	push	{r4, r5, lr}
30002378:	e353000c 	cmp	r3, #12
3000237c:	e24dd01c 	sub	sp, sp, #28
30002380:	e1a04003 	mov	r4, r3
30002384:	83a0002a 	movhi	r0, #42	; 0x2a
30002388:	8a00000e 	bhi	300023c8 <OSTaskCreate+0x54>
3000238c:	e52d0004 	push	{r0}		; (str r0, [sp, #-4]!)
30002390:	e10f0000 	mrs	r0, CPSR
30002394:	e38000c0 	orr	r0, r0, #192	; 0xc0
30002398:	e129f000 	msr	CPSR_fc, r0
3000239c:	e49d0004 	pop	{r0}		; (ldr r0, [sp], #4)
300023a0:	e59f5108 	ldr	r5, [pc, #264]	; 300024b0 <OSTaskCreate+0x13c>
300023a4:	e7953103 	ldr	r3, [r5, r3, lsl #2]
300023a8:	e3530000 	cmp	r3, #0
300023ac:	0a000008 	beq	300023d4 <OSTaskCreate+0x60>
300023b0:	e52d0004 	push	{r0}		; (str r0, [sp, #-4]!)
300023b4:	e10f0000 	mrs	r0, CPSR
300023b8:	e3c000c0 	bic	r0, r0, #192	; 0xc0
300023bc:	e129f000 	msr	CPSR_fc, r0
300023c0:	e49d0004 	pop	{r0}		; (ldr r0, [sp], #4)
300023c4:	e3a00028 	mov	r0, #40	; 0x28
300023c8:	e28dd01c 	add	sp, sp, #28
300023cc:	e8bd4030 	pop	{r4, r5, lr}
300023d0:	e12fff1e 	bx	lr
300023d4:	e3a0e001 	mov	lr, #1
300023d8:	e785e104 	str	lr, [r5, r4, lsl #2]
300023dc:	e52d0004 	push	{r0}		; (str r0, [sp, #-4]!)
300023e0:	e10f0000 	mrs	r0, CPSR
300023e4:	e3c000c0 	bic	r0, r0, #192	; 0xc0
300023e8:	e129f000 	msr	CPSR_fc, r0
300023ec:	e49d0004 	pop	{r0}		; (ldr r0, [sp], #4)
300023f0:	e3a03000 	mov	r3, #0
300023f4:	eb000689 	bl	30003e20 <OSTaskStkInit>
300023f8:	e3a0c000 	mov	ip, #0
300023fc:	e1a01000 	mov	r1, r0
30002400:	e1a0200c 	mov	r2, ip
30002404:	e1a00004 	mov	r0, r4
30002408:	e1a0300c 	mov	r3, ip
3000240c:	e58dc000 	str	ip, [sp]
30002410:	e58dc004 	str	ip, [sp, #4]
30002414:	e58dc008 	str	ip, [sp, #8]
30002418:	eb0005f9 	bl	30003c04 <OS_TCBInit>
3000241c:	e3500000 	cmp	r0, #0
30002420:	1a000015 	bne	3000247c <OSTaskCreate+0x108>
30002424:	e52d0004 	push	{r0}		; (str r0, [sp, #-4]!)
30002428:	e10f0000 	mrs	r0, CPSR
3000242c:	e38000c0 	orr	r0, r0, #192	; 0xc0
30002430:	e129f000 	msr	CPSR_fc, r0
30002434:	e49d0004 	pop	{r0}		; (ldr r0, [sp], #4)
30002438:	e59f3074 	ldr	r3, [pc, #116]	; 300024b4 <OSTaskCreate+0x140>
3000243c:	e5d3e000 	ldrb	lr, [r3]
30002440:	e28ec001 	add	ip, lr, #1
30002444:	e5c3c000 	strb	ip, [r3]
30002448:	e52d0004 	push	{r0}		; (str r0, [sp, #-4]!)
3000244c:	e10f0000 	mrs	r0, CPSR
30002450:	e3c000c0 	bic	r0, r0, #192	; 0xc0
30002454:	e129f000 	msr	CPSR_fc, r0
30002458:	e49d0004 	pop	{r0}		; (ldr r0, [sp], #4)
3000245c:	e59f2054 	ldr	r2, [pc, #84]	; 300024b8 <OSTaskCreate+0x144>
30002460:	e5d21000 	ldrb	r1, [r2]
30002464:	e3510001 	cmp	r1, #1
30002468:	1affffd6 	bne	300023c8 <OSTaskCreate+0x54>
3000246c:	e58d0014 	str	r0, [sp, #20]
30002470:	eb000583 	bl	30003a84 <OS_Sched>
30002474:	e59d0014 	ldr	r0, [sp, #20]
30002478:	eaffffd2 	b	300023c8 <OSTaskCreate+0x54>
3000247c:	e52d0004 	push	{r0}		; (str r0, [sp, #-4]!)
30002480:	e10f0000 	mrs	r0, CPSR
30002484:	e38000c0 	orr	r0, r0, #192	; 0xc0
30002488:	e129f000 	msr	CPSR_fc, r0
3000248c:	e49d0004 	pop	{r0}		; (ldr r0, [sp], #4)
30002490:	e3a01000 	mov	r1, #0
30002494:	e7851104 	str	r1, [r5, r4, lsl #2]
30002498:	e52d0004 	push	{r0}		; (str r0, [sp, #-4]!)
3000249c:	e10f0000 	mrs	r0, CPSR
300024a0:	e3c000c0 	bic	r0, r0, #192	; 0xc0
300024a4:	e129f000 	msr	CPSR_fc, r0
300024a8:	e49d0004 	pop	{r0}		; (ldr r0, [sp], #4)
300024ac:	eaffffc5 	b	300023c8 <OSTaskCreate+0x54>
300024b0:	30006414 	andcc	r6, r0, r4, lsl r4
300024b4:	3000592c 	andcc	r5, r0, ip, lsr #18
300024b8:	30005831 	andcc	r5, r0, r1, lsr r8

300024bc <OSTaskCreateExt>:
300024bc:	e92d4ff0 	push	{r4, r5, r6, r7, r8, r9, sl, fp, lr}
300024c0:	e353000c 	cmp	r3, #12
300024c4:	e24dd01c 	sub	sp, sp, #28
300024c8:	e1a07000 	mov	r7, r0
300024cc:	e1a04003 	mov	r4, r3
300024d0:	e1a0a001 	mov	sl, r1
300024d4:	e1a08002 	mov	r8, r2
300024d8:	e59db044 	ldr	fp, [sp, #68]	; 0x44
300024dc:	e1dd94b0 	ldrh	r9, [sp, #64]	; 0x40
300024e0:	e1dd65b0 	ldrh	r6, [sp, #80]	; 0x50
300024e4:	83a0002a 	movhi	r0, #42	; 0x2a
300024e8:	8a00000e 	bhi	30002528 <OSTaskCreateExt+0x6c>
300024ec:	e52d0004 	push	{r0}		; (str r0, [sp, #-4]!)
300024f0:	e10f0000 	mrs	r0, CPSR
300024f4:	e38000c0 	orr	r0, r0, #192	; 0xc0
300024f8:	e129f000 	msr	CPSR_fc, r0
300024fc:	e49d0004 	pop	{r0}		; (ldr r0, [sp], #4)
30002500:	e59f5138 	ldr	r5, [pc, #312]	; 30002640 <OSTaskCreateExt+0x184>
30002504:	e7953103 	ldr	r3, [r5, r3, lsl #2]
30002508:	e3530000 	cmp	r3, #0
3000250c:	0a000008 	beq	30002534 <OSTaskCreateExt+0x78>
30002510:	e52d0004 	push	{r0}		; (str r0, [sp, #-4]!)
30002514:	e10f0000 	mrs	r0, CPSR
30002518:	e3c000c0 	bic	r0, r0, #192	; 0xc0
3000251c:	e129f000 	msr	CPSR_fc, r0
30002520:	e49d0004 	pop	{r0}		; (ldr r0, [sp], #4)
30002524:	e3a00028 	mov	r0, #40	; 0x28
30002528:	e28dd01c 	add	sp, sp, #28
3000252c:	e8bd4ff0 	pop	{r4, r5, r6, r7, r8, r9, sl, fp, lr}
30002530:	e12fff1e 	bx	lr
30002534:	e3a00001 	mov	r0, #1
30002538:	e7850104 	str	r0, [r5, r4, lsl #2]
3000253c:	e52d0004 	push	{r0}		; (str r0, [sp, #-4]!)
30002540:	e10f0000 	mrs	r0, CPSR
30002544:	e3c000c0 	bic	r0, r0, #192	; 0xc0
30002548:	e129f000 	msr	CPSR_fc, r0
3000254c:	e49d0004 	pop	{r0}		; (ldr r0, [sp], #4)
30002550:	e3160003 	tst	r6, #3
30002554:	1a000033 	bne	30002628 <OSTaskCreateExt+0x16c>
30002558:	e1a0100a 	mov	r1, sl
3000255c:	e1a02008 	mov	r2, r8
30002560:	e1a03006 	mov	r3, r6
30002564:	e1a00007 	mov	r0, r7
30002568:	eb00062c 	bl	30003e20 <OSTaskStkInit>
3000256c:	e59dc048 	ldr	ip, [sp, #72]	; 0x48
30002570:	e58dc000 	str	ip, [sp]
30002574:	e59dc04c 	ldr	ip, [sp, #76]	; 0x4c
30002578:	e1a01000 	mov	r1, r0
3000257c:	e1a0200b 	mov	r2, fp
30002580:	e1a00004 	mov	r0, r4
30002584:	e1a03009 	mov	r3, r9
30002588:	e58dc004 	str	ip, [sp, #4]
3000258c:	e58d6008 	str	r6, [sp, #8]
30002590:	eb00059b 	bl	30003c04 <OS_TCBInit>
30002594:	e3500000 	cmp	r0, #0
30002598:	1a000015 	bne	300025f4 <OSTaskCreateExt+0x138>
3000259c:	e52d0004 	push	{r0}		; (str r0, [sp, #-4]!)
300025a0:	e10f0000 	mrs	r0, CPSR
300025a4:	e38000c0 	orr	r0, r0, #192	; 0xc0
300025a8:	e129f000 	msr	CPSR_fc, r0
300025ac:	e49d0004 	pop	{r0}		; (ldr r0, [sp], #4)
300025b0:	e59f308c 	ldr	r3, [pc, #140]	; 30002644 <OSTaskCreateExt+0x188>
300025b4:	e5d3c000 	ldrb	ip, [r3]
300025b8:	e28c2001 	add	r2, ip, #1
300025bc:	e5c32000 	strb	r2, [r3]
300025c0:	e52d0004 	push	{r0}		; (str r0, [sp, #-4]!)
300025c4:	e10f0000 	mrs	r0, CPSR
300025c8:	e3c000c0 	bic	r0, r0, #192	; 0xc0
300025cc:	e129f000 	msr	CPSR_fc, r0
300025d0:	e49d0004 	pop	{r0}		; (ldr r0, [sp], #4)
300025d4:	e59fe06c 	ldr	lr, [pc, #108]	; 30002648 <OSTaskCreateExt+0x18c>
300025d8:	e5de1000 	ldrb	r1, [lr]
300025dc:	e3510001 	cmp	r1, #1
300025e0:	1affffd0 	bne	30002528 <OSTaskCreateExt+0x6c>
300025e4:	e58d0014 	str	r0, [sp, #20]
300025e8:	eb000525 	bl	30003a84 <OS_Sched>
300025ec:	e59d0014 	ldr	r0, [sp, #20]
300025f0:	eaffffcc 	b	30002528 <OSTaskCreateExt+0x6c>
300025f4:	e52d0004 	push	{r0}		; (str r0, [sp, #-4]!)
300025f8:	e10f0000 	mrs	r0, CPSR
300025fc:	e38000c0 	orr	r0, r0, #192	; 0xc0
30002600:	e129f000 	msr	CPSR_fc, r0
30002604:	e49d0004 	pop	{r0}		; (ldr r0, [sp], #4)
30002608:	e3a01000 	mov	r1, #0
3000260c:	e7851104 	str	r1, [r5, r4, lsl #2]
30002610:	e52d0004 	push	{r0}		; (str r0, [sp, #-4]!)
30002614:	e10f0000 	mrs	r0, CPSR
30002618:	e3c000c0 	bic	r0, r0, #192	; 0xc0
3000261c:	e129f000 	msr	CPSR_fc, r0
30002620:	e49d0004 	pop	{r0}		; (ldr r0, [sp], #4)
30002624:	eaffffbf 	b	30002528 <OSTaskCreateExt+0x6c>
30002628:	e59d2048 	ldr	r2, [sp, #72]	; 0x48
3000262c:	e1a0000b 	mov	r0, fp
30002630:	e3a01000 	mov	r1, #0
30002634:	e1a02102 	lsl	r2, r2, #2
30002638:	ebfff730 	bl	30000300 <memset>
3000263c:	eaffffc5 	b	30002558 <OSTaskCreateExt+0x9c>
30002640:	30006414 	andcc	r6, r0, r4, lsl r4
30002644:	3000592c 	andcc	r5, r0, ip, lsr #18
30002648:	30005831 	andcc	r5, r0, r1, lsr r8

3000264c <OSTaskDel>:
3000264c:	e92d40f8 	push	{r3, r4, r5, r6, r7, lr}
30002650:	e59f11cc 	ldr	r1, [pc, #460]	; 30002824 <OSTaskDel+0x1d8>
30002654:	e5d13000 	ldrb	r3, [r1]
30002658:	e3530000 	cmp	r3, #0
3000265c:	e1a05000 	mov	r5, r0
30002660:	13a0003f 	movne	r0, #63	; 0x3f
30002664:	1a000065 	bne	30002800 <OSTaskDel+0x1b4>
30002668:	e350000c 	cmp	r0, #12
3000266c:	03a0003d 	moveq	r0, #61	; 0x3d
30002670:	0a000062 	beq	30002800 <OSTaskDel+0x1b4>
30002674:	e240200c 	sub	r2, r0, #12
30002678:	e20230ff 	and	r3, r2, #255	; 0xff
3000267c:	e35300f2 	cmp	r3, #242	; 0xf2
30002680:	93a0002a 	movls	r0, #42	; 0x2a
30002684:	9a00005d 	bls	30002800 <OSTaskDel+0x1b4>
30002688:	e52d0004 	push	{r0}		; (str r0, [sp, #-4]!)
3000268c:	e10f0000 	mrs	r0, CPSR
30002690:	e38000c0 	orr	r0, r0, #192	; 0xc0
30002694:	e129f000 	msr	CPSR_fc, r0
30002698:	e49d0004 	pop	{r0}		; (ldr r0, [sp], #4)
3000269c:	e35000ff 	cmp	r0, #255	; 0xff
300026a0:	059f3180 	ldreq	r3, [pc, #384]	; 30002828 <OSTaskDel+0x1dc>
300026a4:	05933000 	ldreq	r3, [r3]
300026a8:	e59f617c 	ldr	r6, [pc, #380]	; 3000282c <OSTaskDel+0x1e0>
300026ac:	05d3502d 	ldrbeq	r5, [r3, #45]	; 0x2d
300026b0:	e7964105 	ldr	r4, [r6, r5, lsl #2]
300026b4:	e3540000 	cmp	r4, #0
300026b8:	0a000052 	beq	30002808 <OSTaskDel+0x1bc>
300026bc:	e59fe16c 	ldr	lr, [pc, #364]	; 30002830 <OSTaskDel+0x1e4>
300026c0:	e5d42030 	ldrb	r2, [r4, #48]	; 0x30
300026c4:	e5d4302f 	ldrb	r3, [r4, #47]	; 0x2f
300026c8:	e1e00002 	mvn	r0, r2
300026cc:	e7de1003 	ldrb	r1, [lr, r3]
300026d0:	e20000ff 	and	r0, r0, #255	; 0xff
300026d4:	e0017000 	and	r7, r1, r0
300026d8:	e3570000 	cmp	r7, #0
300026dc:	e7ce7003 	strb	r7, [lr, r3]
300026e0:	059fe14c 	ldreq	lr, [pc, #332]	; 30002834 <OSTaskDel+0x1e8>
300026e4:	05d4c031 	ldrbeq	ip, [r4, #49]	; 0x31
300026e8:	05de7000 	ldrbeq	r7, [lr]
300026ec:	01c7700c 	biceq	r7, r7, ip
300026f0:	05ce7000 	strbeq	r7, [lr]
300026f4:	e594201c 	ldr	r2, [r4, #28]
300026f8:	e3520000 	cmp	r2, #0
300026fc:	0a000008 	beq	30002724 <OSTaskDel+0xd8>
30002700:	e0823003 	add	r3, r2, r3
30002704:	e5d37008 	ldrb	r7, [r3, #8]
30002708:	e007e000 	and	lr, r7, r0
3000270c:	e5c3e008 	strb	lr, [r3, #8]
30002710:	e35e0000 	cmp	lr, #0
30002714:	05d47031 	ldrbeq	r7, [r4, #49]	; 0x31
30002718:	05d23001 	ldrbeq	r3, [r2, #1]
3000271c:	01c33007 	biceq	r3, r3, r7
30002720:	05c23001 	strbeq	r3, [r2, #1]
30002724:	e5940024 	ldr	r0, [r4, #36]	; 0x24
30002728:	e3500000 	cmp	r0, #0
3000272c:	1bfffa78 	blne	30001114 <OS_FlagUnlink>
30002730:	e3a0c000 	mov	ip, #0
30002734:	e5c4c02c 	strb	ip, [r4, #44]	; 0x2c
30002738:	e59f70f8 	ldr	r7, [pc, #248]	; 30002838 <OSTaskDel+0x1ec>
3000273c:	e5d7e000 	ldrb	lr, [r7]
30002740:	e35e00ff 	cmp	lr, #255	; 0xff
30002744:	128ee001 	addne	lr, lr, #1
30002748:	e1c4c2ba 	strh	ip, [r4, #42]	; 0x2a
3000274c:	15c7e000 	strbne	lr, [r7]
30002750:	e52d0004 	push	{r0}		; (str r0, [sp, #-4]!)
30002754:	e10f0000 	mrs	r0, CPSR
30002758:	e3c000c0 	bic	r0, r0, #192	; 0xc0
3000275c:	e129f000 	msr	CPSR_fc, r0
30002760:	e49d0004 	pop	{r0}		; (ldr r0, [sp], #4)
30002764:	eb000465 	bl	30003900 <OS_Dummy>
30002768:	e52d0004 	push	{r0}		; (str r0, [sp, #-4]!)
3000276c:	e10f0000 	mrs	r0, CPSR
30002770:	e38000c0 	orr	r0, r0, #192	; 0xc0
30002774:	e129f000 	msr	CPSR_fc, r0
30002778:	e49d0004 	pop	{r0}		; (ldr r0, [sp], #4)
3000277c:	e5d73000 	ldrb	r3, [r7]
30002780:	e3530000 	cmp	r3, #0
30002784:	159f20ac 	ldrne	r2, [pc, #172]	; 30002838 <OSTaskDel+0x1ec>
30002788:	12433001 	subne	r3, r3, #1
3000278c:	15c23000 	strbne	r3, [r2]
30002790:	e1a00004 	mov	r0, r4
30002794:	eb000599 	bl	30003e00 <OSTaskDelHook>
30002798:	e59f109c 	ldr	r1, [pc, #156]	; 3000283c <OSTaskDel+0x1f0>
3000279c:	e5d10000 	ldrb	r0, [r1]
300027a0:	e3a03000 	mov	r3, #0
300027a4:	e240c001 	sub	ip, r0, #1
300027a8:	e7863105 	str	r3, [r6, r5, lsl #2]
300027ac:	e5c1c000 	strb	ip, [r1]
300027b0:	e2840014 	add	r0, r4, #20
300027b4:	e8900005 	ldm	r0, {r0, r2}
300027b8:	e3520000 	cmp	r2, #0
300027bc:	15820014 	strne	r0, [r2, #20]
300027c0:	e59f1078 	ldr	r1, [pc, #120]	; 30002840 <OSTaskDel+0x1f4>
300027c4:	15940014 	ldrne	r0, [r4, #20]
300027c8:	e591c000 	ldr	ip, [r1]
300027cc:	05802018 	streq	r2, [r0, #24]
300027d0:	059f206c 	ldreq	r2, [pc, #108]	; 30002844 <OSTaskDel+0x1f8>
300027d4:	15802018 	strne	r2, [r0, #24]
300027d8:	05820000 	streq	r0, [r2]
300027dc:	e5814000 	str	r4, [r1]
300027e0:	e584c014 	str	ip, [r4, #20]
300027e4:	e52d0004 	push	{r0}		; (str r0, [sp, #-4]!)
300027e8:	e10f0000 	mrs	r0, CPSR
300027ec:	e3c000c0 	bic	r0, r0, #192	; 0xc0
300027f0:	e129f000 	msr	CPSR_fc, r0
300027f4:	e49d0004 	pop	{r0}		; (ldr r0, [sp], #4)
300027f8:	eb0004a1 	bl	30003a84 <OS_Sched>
300027fc:	e3a00000 	mov	r0, #0
30002800:	e8bd40f8 	pop	{r3, r4, r5, r6, r7, lr}
30002804:	e12fff1e 	bx	lr
30002808:	e52d0004 	push	{r0}		; (str r0, [sp, #-4]!)
3000280c:	e10f0000 	mrs	r0, CPSR
30002810:	e3c000c0 	bic	r0, r0, #192	; 0xc0
30002814:	e129f000 	msr	CPSR_fc, r0
30002818:	e49d0004 	pop	{r0}		; (ldr r0, [sp], #4)
3000281c:	e3a0003c 	mov	r0, #60	; 0x3c
30002820:	eafffff6 	b	30002800 <OSTaskDel+0x1b4>
30002824:	3000597d 	andcc	r5, r0, sp, ror r9
30002828:	30005980 	andcc	r5, r0, r0, lsl #19
3000282c:	30006414 	andcc	r6, r0, r4, lsl r4
30002830:	30005970 	andcc	r5, r0, r0, ror r9
30002834:	3000596c 	andcc	r5, r0, ip, ror #18
30002838:	30005830 	andcc	r5, r0, r0, lsr r8
3000283c:	3000592c 	andcc	r5, r0, ip, lsr #18
30002840:	300058e8 	andcc	r5, r0, r8, ror #17
30002844:	3000587c 	andcc	r5, r0, ip, ror r8

30002848 <OSTaskDelReq>:
30002848:	e350000c 	cmp	r0, #12
3000284c:	03a0003d 	moveq	r0, #61	; 0x3d
30002850:	012fff1e 	bxeq	lr
30002854:	e240100c 	sub	r1, r0, #12
30002858:	e20130ff 	and	r3, r1, #255	; 0xff
3000285c:	e35300f2 	cmp	r3, #242	; 0xf2
30002860:	9a000013 	bls	300028b4 <OSTaskDelReq+0x6c>
30002864:	e35000ff 	cmp	r0, #255	; 0xff
30002868:	0a000013 	beq	300028bc <OSTaskDelReq+0x74>
3000286c:	e52d0004 	push	{r0}		; (str r0, [sp, #-4]!)
30002870:	e10f0000 	mrs	r0, CPSR
30002874:	e38000c0 	orr	r0, r0, #192	; 0xc0
30002878:	e129f000 	msr	CPSR_fc, r0
3000287c:	e49d0004 	pop	{r0}		; (ldr r0, [sp], #4)
30002880:	e59f306c 	ldr	r3, [pc, #108]	; 300028f4 <OSTaskDelReq+0xac>
30002884:	e793c100 	ldr	ip, [r3, r0, lsl #2]
30002888:	e35c0000 	cmp	ip, #0
3000288c:	13a0203e 	movne	r2, #62	; 0x3e
30002890:	15cc2032 	strbne	r2, [ip, #50]	; 0x32
30002894:	13a00000 	movne	r0, #0
30002898:	03a0000b 	moveq	r0, #11
3000289c:	e52d0004 	push	{r0}		; (str r0, [sp, #-4]!)
300028a0:	e10f0000 	mrs	r0, CPSR
300028a4:	e3c000c0 	bic	r0, r0, #192	; 0xc0
300028a8:	e129f000 	msr	CPSR_fc, r0
300028ac:	e49d0004 	pop	{r0}		; (ldr r0, [sp], #4)
300028b0:	e12fff1e 	bx	lr
300028b4:	e3a0002a 	mov	r0, #42	; 0x2a
300028b8:	e12fff1e 	bx	lr
300028bc:	e52d0004 	push	{r0}		; (str r0, [sp, #-4]!)
300028c0:	e10f0000 	mrs	r0, CPSR
300028c4:	e38000c0 	orr	r0, r0, #192	; 0xc0
300028c8:	e129f000 	msr	CPSR_fc, r0
300028cc:	e49d0004 	pop	{r0}		; (ldr r0, [sp], #4)
300028d0:	e59f2020 	ldr	r2, [pc, #32]	; 300028f8 <OSTaskDelReq+0xb0>
300028d4:	e5920000 	ldr	r0, [r2]
300028d8:	e5d00032 	ldrb	r0, [r0, #50]	; 0x32
300028dc:	e52d0004 	push	{r0}		; (str r0, [sp, #-4]!)
300028e0:	e10f0000 	mrs	r0, CPSR
300028e4:	e3c000c0 	bic	r0, r0, #192	; 0xc0
300028e8:	e129f000 	msr	CPSR_fc, r0
300028ec:	e49d0004 	pop	{r0}		; (ldr r0, [sp], #4)
300028f0:	e12fff1e 	bx	lr
300028f4:	30006414 	andcc	r6, r0, r4, lsl r4
300028f8:	30005980 	andcc	r5, r0, r0, lsl #19

300028fc <OSTaskResume>:
300028fc:	e350000b 	cmp	r0, #11
30002900:	e92d4008 	push	{r3, lr}
30002904:	83a0002a 	movhi	r0, #42	; 0x2a
30002908:	8a000011 	bhi	30002954 <OSTaskResume+0x58>
3000290c:	e52d0004 	push	{r0}		; (str r0, [sp, #-4]!)
30002910:	e10f0000 	mrs	r0, CPSR
30002914:	e38000c0 	orr	r0, r0, #192	; 0xc0
30002918:	e129f000 	msr	CPSR_fc, r0
3000291c:	e49d0004 	pop	{r0}		; (ldr r0, [sp], #4)
30002920:	e59f30d4 	ldr	r3, [pc, #212]	; 300029fc <OSTaskResume+0x100>
30002924:	e7933100 	ldr	r3, [r3, r0, lsl #2]
30002928:	e3530000 	cmp	r3, #0
3000292c:	0a00000a 	beq	3000295c <OSTaskResume+0x60>
30002930:	e5d3202c 	ldrb	r2, [r3, #44]	; 0x2c
30002934:	e3120008 	tst	r2, #8
30002938:	1a00000e 	bne	30002978 <OSTaskResume+0x7c>
3000293c:	e52d0004 	push	{r0}		; (str r0, [sp, #-4]!)
30002940:	e10f0000 	mrs	r0, CPSR
30002944:	e3c000c0 	bic	r0, r0, #192	; 0xc0
30002948:	e129f000 	msr	CPSR_fc, r0
3000294c:	e49d0004 	pop	{r0}		; (ldr r0, [sp], #4)
30002950:	e3a00065 	mov	r0, #101	; 0x65
30002954:	e8bd4008 	pop	{r3, lr}
30002958:	e12fff1e 	bx	lr
3000295c:	e52d0004 	push	{r0}		; (str r0, [sp, #-4]!)
30002960:	e10f0000 	mrs	r0, CPSR
30002964:	e3c000c0 	bic	r0, r0, #192	; 0xc0
30002968:	e129f000 	msr	CPSR_fc, r0
3000296c:	e49d0004 	pop	{r0}		; (ldr r0, [sp], #4)
30002970:	e3a00064 	mov	r0, #100	; 0x64
30002974:	eafffff6 	b	30002954 <OSTaskResume+0x58>
30002978:	e20220f7 	and	r2, r2, #247	; 0xf7
3000297c:	e3520000 	cmp	r2, #0
30002980:	e5c3202c 	strb	r2, [r3, #44]	; 0x2c
30002984:	1a000002 	bne	30002994 <OSTaskResume+0x98>
30002988:	e1d302ba 	ldrh	r0, [r3, #42]	; 0x2a
3000298c:	e3500000 	cmp	r0, #0
30002990:	0a000006 	beq	300029b0 <OSTaskResume+0xb4>
30002994:	e52d0004 	push	{r0}		; (str r0, [sp, #-4]!)
30002998:	e10f0000 	mrs	r0, CPSR
3000299c:	e3c000c0 	bic	r0, r0, #192	; 0xc0
300029a0:	e129f000 	msr	CPSR_fc, r0
300029a4:	e49d0004 	pop	{r0}		; (ldr r0, [sp], #4)
300029a8:	e3a00000 	mov	r0, #0
300029ac:	eaffffe8 	b	30002954 <OSTaskResume+0x58>
300029b0:	e59fc048 	ldr	ip, [pc, #72]	; 30002a00 <OSTaskResume+0x104>
300029b4:	e5d31031 	ldrb	r1, [r3, #49]	; 0x31
300029b8:	e5dce000 	ldrb	lr, [ip]
300029bc:	e18e0001 	orr	r0, lr, r1
300029c0:	e5cc0000 	strb	r0, [ip]
300029c4:	e59f1038 	ldr	r1, [pc, #56]	; 30002a04 <OSTaskResume+0x108>
300029c8:	e5d3c02f 	ldrb	ip, [r3, #47]	; 0x2f
300029cc:	e5d33030 	ldrb	r3, [r3, #48]	; 0x30
300029d0:	e7d1200c 	ldrb	r2, [r1, ip]
300029d4:	e182e003 	orr	lr, r2, r3
300029d8:	e7c1e00c 	strb	lr, [r1, ip]
300029dc:	e52d0004 	push	{r0}		; (str r0, [sp, #-4]!)
300029e0:	e10f0000 	mrs	r0, CPSR
300029e4:	e3c000c0 	bic	r0, r0, #192	; 0xc0
300029e8:	e129f000 	msr	CPSR_fc, r0
300029ec:	e49d0004 	pop	{r0}		; (ldr r0, [sp], #4)
300029f0:	eb000423 	bl	30003a84 <OS_Sched>
300029f4:	e3a00000 	mov	r0, #0
300029f8:	eaffffd5 	b	30002954 <OSTaskResume+0x58>
300029fc:	30006414 	andcc	r6, r0, r4, lsl r4
30002a00:	3000596c 	andcc	r5, r0, ip, ror #18
30002a04:	30005970 	andcc	r5, r0, r0, ror r9

30002a08 <OSTaskStkChk>:
30002a08:	e240200d 	sub	r2, r0, #13
30002a0c:	e20230ff 	and	r3, r2, #255	; 0xff
30002a10:	e35300f1 	cmp	r3, #241	; 0xf1
30002a14:	9a000019 	bls	30002a80 <OSTaskStkChk+0x78>
30002a18:	e3a03000 	mov	r3, #0
30002a1c:	e5813000 	str	r3, [r1]
30002a20:	e5813004 	str	r3, [r1, #4]
30002a24:	e52d0004 	push	{r0}		; (str r0, [sp, #-4]!)
30002a28:	e10f0000 	mrs	r0, CPSR
30002a2c:	e38000c0 	orr	r0, r0, #192	; 0xc0
30002a30:	e129f000 	msr	CPSR_fc, r0
30002a34:	e49d0004 	pop	{r0}		; (ldr r0, [sp], #4)
30002a38:	e35000ff 	cmp	r0, #255	; 0xff
30002a3c:	059f30b8 	ldreq	r3, [pc, #184]	; 30002afc <OSTaskStkChk+0xf4>
30002a40:	05933000 	ldreq	r3, [r3]
30002a44:	e59fc0b4 	ldr	ip, [pc, #180]	; 30002b00 <OSTaskStkChk+0xf8>
30002a48:	05d3002d 	ldrbeq	r0, [r3, #45]	; 0x2d
30002a4c:	e79c2100 	ldr	r2, [ip, r0, lsl #2]
30002a50:	e3520000 	cmp	r2, #0
30002a54:	0a00000b 	beq	30002a88 <OSTaskStkChk+0x80>
30002a58:	e1d201b0 	ldrh	r0, [r2, #16]
30002a5c:	e3100001 	tst	r0, #1
30002a60:	1a00000f 	bne	30002aa4 <OSTaskStkChk+0x9c>
30002a64:	e52d0004 	push	{r0}		; (str r0, [sp, #-4]!)
30002a68:	e10f0000 	mrs	r0, CPSR
30002a6c:	e3c000c0 	bic	r0, r0, #192	; 0xc0
30002a70:	e129f000 	msr	CPSR_fc, r0
30002a74:	e49d0004 	pop	{r0}		; (ldr r0, [sp], #4)
30002a78:	e3a00082 	mov	r0, #130	; 0x82
30002a7c:	e12fff1e 	bx	lr
30002a80:	e3a0002a 	mov	r0, #42	; 0x2a
30002a84:	e12fff1e 	bx	lr
30002a88:	e52d0004 	push	{r0}		; (str r0, [sp, #-4]!)
30002a8c:	e10f0000 	mrs	r0, CPSR
30002a90:	e3c000c0 	bic	r0, r0, #192	; 0xc0
30002a94:	e129f000 	msr	CPSR_fc, r0
30002a98:	e49d0004 	pop	{r0}		; (ldr r0, [sp], #4)
30002a9c:	e3a0000b 	mov	r0, #11
30002aa0:	e12fff1e 	bx	lr
30002aa4:	e2822008 	add	r2, r2, #8
30002aa8:	e8921004 	ldm	r2, {r2, ip}
30002aac:	e52d0004 	push	{r0}		; (str r0, [sp, #-4]!)
30002ab0:	e10f0000 	mrs	r0, CPSR
30002ab4:	e3c000c0 	bic	r0, r0, #192	; 0xc0
30002ab8:	e129f000 	msr	CPSR_fc, r0
30002abc:	e49d0004 	pop	{r0}		; (ldr r0, [sp], #4)
30002ac0:	e5923000 	ldr	r3, [r2]
30002ac4:	e3530000 	cmp	r3, #0
30002ac8:	13a02000 	movne	r2, #0
30002acc:	11a03002 	movne	r3, r2
30002ad0:	1a000004 	bne	30002ae8 <OSTaskStkChk+0xe0>
30002ad4:	e5b20004 	ldr	r0, [r2, #4]!
30002ad8:	e3500000 	cmp	r0, #0
30002adc:	e2833001 	add	r3, r3, #1
30002ae0:	0afffffb 	beq	30002ad4 <OSTaskStkChk+0xcc>
30002ae4:	e1a02103 	lsl	r2, r3, #2
30002ae8:	e063300c 	rsb	r3, r3, ip
30002aec:	e1a0c103 	lsl	ip, r3, #2
30002af0:	e8811004 	stm	r1, {r2, ip}
30002af4:	e3a00000 	mov	r0, #0
30002af8:	e12fff1e 	bx	lr
30002afc:	30005980 	andcc	r5, r0, r0, lsl #19
30002b00:	30006414 	andcc	r6, r0, r4, lsl r4

30002b04 <OSTaskSuspend>:
30002b04:	e350000c 	cmp	r0, #12
30002b08:	e92d4010 	push	{r4, lr}
30002b0c:	03a0005b 	moveq	r0, #91	; 0x5b
30002b10:	0a00002c 	beq	30002bc8 <OSTaskSuspend+0xc4>
30002b14:	e240100c 	sub	r1, r0, #12
30002b18:	e20130ff 	and	r3, r1, #255	; 0xff
30002b1c:	e35300f2 	cmp	r3, #242	; 0xf2
30002b20:	93a0002a 	movls	r0, #42	; 0x2a
30002b24:	9a000027 	bls	30002bc8 <OSTaskSuspend+0xc4>
30002b28:	e52d0004 	push	{r0}		; (str r0, [sp, #-4]!)
30002b2c:	e10f0000 	mrs	r0, CPSR
30002b30:	e38000c0 	orr	r0, r0, #192	; 0xc0
30002b34:	e129f000 	msr	CPSR_fc, r0
30002b38:	e49d0004 	pop	{r0}		; (ldr r0, [sp], #4)
30002b3c:	e35000ff 	cmp	r0, #255	; 0xff
30002b40:	0a000022 	beq	30002bd0 <OSTaskSuspend+0xcc>
30002b44:	e59fc0cc 	ldr	ip, [pc, #204]	; 30002c18 <OSTaskSuspend+0x114>
30002b48:	e59c2000 	ldr	r2, [ip]
30002b4c:	e5d2102d 	ldrb	r1, [r2, #45]	; 0x2d
30002b50:	e0603001 	rsb	r3, r0, r1
30002b54:	e273c000 	rsbs	ip, r3, #0
30002b58:	e0acc003 	adc	ip, ip, r3
30002b5c:	e59f30b8 	ldr	r3, [pc, #184]	; 30002c1c <OSTaskSuspend+0x118>
30002b60:	e7933100 	ldr	r3, [r3, r0, lsl #2]
30002b64:	e3530000 	cmp	r3, #0
30002b68:	0a000020 	beq	30002bf0 <OSTaskSuspend+0xec>
30002b6c:	e5d3202f 	ldrb	r2, [r3, #47]	; 0x2f
30002b70:	e59f10a8 	ldr	r1, [pc, #168]	; 30002c20 <OSTaskSuspend+0x11c>
30002b74:	e5d34030 	ldrb	r4, [r3, #48]	; 0x30
30002b78:	e7d10002 	ldrb	r0, [r1, r2]
30002b7c:	e1c00004 	bic	r0, r0, r4
30002b80:	e3500000 	cmp	r0, #0
30002b84:	e7c10002 	strb	r0, [r1, r2]
30002b88:	059f2094 	ldreq	r2, [pc, #148]	; 30002c24 <OSTaskSuspend+0x120>
30002b8c:	05d30031 	ldrbeq	r0, [r3, #49]	; 0x31
30002b90:	05d21000 	ldrbeq	r1, [r2]
30002b94:	01c11000 	biceq	r1, r1, r0
30002b98:	05c21000 	strbeq	r1, [r2]
30002b9c:	e5d3202c 	ldrb	r2, [r3, #44]	; 0x2c
30002ba0:	e3821008 	orr	r1, r2, #8
30002ba4:	e5c3102c 	strb	r1, [r3, #44]	; 0x2c
30002ba8:	e52d0004 	push	{r0}		; (str r0, [sp, #-4]!)
30002bac:	e10f0000 	mrs	r0, CPSR
30002bb0:	e3c000c0 	bic	r0, r0, #192	; 0xc0
30002bb4:	e129f000 	msr	CPSR_fc, r0
30002bb8:	e49d0004 	pop	{r0}		; (ldr r0, [sp], #4)
30002bbc:	e35c0001 	cmp	ip, #1
30002bc0:	13a00000 	movne	r0, #0
30002bc4:	0a000010 	beq	30002c0c <OSTaskSuspend+0x108>
30002bc8:	e8bd4010 	pop	{r4, lr}
30002bcc:	e12fff1e 	bx	lr
30002bd0:	e59f2040 	ldr	r2, [pc, #64]	; 30002c18 <OSTaskSuspend+0x114>
30002bd4:	e5920000 	ldr	r0, [r2]
30002bd8:	e59f303c 	ldr	r3, [pc, #60]	; 30002c1c <OSTaskSuspend+0x118>
30002bdc:	e5d0002d 	ldrb	r0, [r0, #45]	; 0x2d
30002be0:	e7933100 	ldr	r3, [r3, r0, lsl #2]
30002be4:	e3530000 	cmp	r3, #0
30002be8:	e3a0c001 	mov	ip, #1
30002bec:	1affffde 	bne	30002b6c <OSTaskSuspend+0x68>
30002bf0:	e52d0004 	push	{r0}		; (str r0, [sp, #-4]!)
30002bf4:	e10f0000 	mrs	r0, CPSR
30002bf8:	e3c000c0 	bic	r0, r0, #192	; 0xc0
30002bfc:	e129f000 	msr	CPSR_fc, r0
30002c00:	e49d0004 	pop	{r0}		; (ldr r0, [sp], #4)
30002c04:	e3a0005a 	mov	r0, #90	; 0x5a
30002c08:	eaffffee 	b	30002bc8 <OSTaskSuspend+0xc4>
30002c0c:	eb00039c 	bl	30003a84 <OS_Sched>
30002c10:	e3a00000 	mov	r0, #0
30002c14:	eaffffeb 	b	30002bc8 <OSTaskSuspend+0xc4>
30002c18:	30005980 	andcc	r5, r0, r0, lsl #19
30002c1c:	30006414 	andcc	r6, r0, r4, lsl r4
30002c20:	30005970 	andcc	r5, r0, r0, ror r9
30002c24:	3000596c 	andcc	r5, r0, ip, ror #18

30002c28 <OSTaskQuery>:
30002c28:	e240300d 	sub	r3, r0, #13
30002c2c:	e20330ff 	and	r3, r3, #255	; 0xff
30002c30:	e35300f1 	cmp	r3, #241	; 0xf1
30002c34:	e92d0030 	push	{r4, r5}
30002c38:	e1a0c001 	mov	ip, r1
30002c3c:	93a0002a 	movls	r0, #42	; 0x2a
30002c40:	9a00001c 	bls	30002cb8 <OSTaskQuery+0x90>
30002c44:	e52d0004 	push	{r0}		; (str r0, [sp, #-4]!)
30002c48:	e10f0000 	mrs	r0, CPSR
30002c4c:	e38000c0 	orr	r0, r0, #192	; 0xc0
30002c50:	e129f000 	msr	CPSR_fc, r0
30002c54:	e49d0004 	pop	{r0}		; (ldr r0, [sp], #4)
30002c58:	e35000ff 	cmp	r0, #255	; 0xff
30002c5c:	059f3078 	ldreq	r3, [pc, #120]	; 30002cdc <OSTaskQuery+0xb4>
30002c60:	05933000 	ldreq	r3, [r3]
30002c64:	e59f1074 	ldr	r1, [pc, #116]	; 30002ce0 <OSTaskQuery+0xb8>
30002c68:	05d3002d 	ldrbeq	r0, [r3, #45]	; 0x2d
30002c6c:	e7914100 	ldr	r4, [r1, r0, lsl #2]
30002c70:	e3540000 	cmp	r4, #0
30002c74:	0a000011 	beq	30002cc0 <OSTaskQuery+0x98>
30002c78:	e8b4000f 	ldm	r4!, {r0, r1, r2, r3}
30002c7c:	e1a0500c 	mov	r5, ip
30002c80:	e8a5000f 	stmia	r5!, {r0, r1, r2, r3}
30002c84:	e8b4000f 	ldm	r4!, {r0, r1, r2, r3}
30002c88:	e1a0c005 	mov	ip, r5
30002c8c:	e8ac000f 	stmia	ip!, {r0, r1, r2, r3}
30002c90:	e8b4000f 	ldm	r4!, {r0, r1, r2, r3}
30002c94:	e8ac000f 	stmia	ip!, {r0, r1, r2, r3}
30002c98:	e5942000 	ldr	r2, [r4]
30002c9c:	e58c2000 	str	r2, [ip]
30002ca0:	e52d0004 	push	{r0}		; (str r0, [sp, #-4]!)
30002ca4:	e10f0000 	mrs	r0, CPSR
30002ca8:	e3c000c0 	bic	r0, r0, #192	; 0xc0
30002cac:	e129f000 	msr	CPSR_fc, r0
30002cb0:	e49d0004 	pop	{r0}		; (ldr r0, [sp], #4)
30002cb4:	e3a00000 	mov	r0, #0
30002cb8:	e8bd0030 	pop	{r4, r5}
30002cbc:	e12fff1e 	bx	lr
30002cc0:	e52d0004 	push	{r0}		; (str r0, [sp, #-4]!)
30002cc4:	e10f0000 	mrs	r0, CPSR
30002cc8:	e3c000c0 	bic	r0, r0, #192	; 0xc0
30002ccc:	e129f000 	msr	CPSR_fc, r0
30002cd0:	e49d0004 	pop	{r0}		; (ldr r0, [sp], #4)
30002cd4:	e3a00029 	mov	r0, #41	; 0x29
30002cd8:	eafffff6 	b	30002cb8 <OSTaskQuery+0x90>
30002cdc:	30005980 	andcc	r5, r0, r0, lsl #19
30002ce0:	30006414 	andcc	r6, r0, r4, lsl r4

30002ce4 <irq_init>:
30002ce4:	e3a0344a 	mov	r3, #1241513984	; 0x4a000000
30002ce8:	e5931008 	ldr	r1, [r3, #8]
30002cec:	e3a02901 	mov	r2, #16384	; 0x4000
30002cf0:	e3c10901 	bic	r0, r1, #16384	; 0x4000
30002cf4:	e5830008 	str	r0, [r3, #8]
30002cf8:	e5832004 	str	r2, [r3, #4]
30002cfc:	e12fff1e 	bx	lr

30002d00 <timer0_irq>:
30002d00:	e3a0c456 	mov	ip, #1442840576	; 0x56000000
30002d04:	e59c3014 	ldr	r3, [ip, #20]
30002d08:	e2032e1e 	and	r2, r3, #480	; 0x1e0
30002d0c:	e1e01002 	mvn	r1, r2
30002d10:	e3a0344a 	mov	r3, #1241513984	; 0x4a000000
30002d14:	e3a00b01 	mov	r0, #1024	; 0x400
30002d18:	e58c1014 	str	r1, [ip, #20]
30002d1c:	e5830000 	str	r0, [r3]
30002d20:	e5932010 	ldr	r2, [r3, #16]
30002d24:	e5832010 	str	r2, [r3, #16]
30002d28:	e12fff1e 	bx	lr

30002d2c <uart0_irq>:
30002d2c:	e3a03205 	mov	r3, #1342177280	; 0x50000000
30002d30:	e5932010 	ldr	r2, [r3, #16]
30002d34:	e3120001 	tst	r2, #1
30002d38:	0a00000a 	beq	30002d68 <uart0_irq+0x3c>
30002d3c:	e59f2044 	ldr	r2, [pc, #68]	; 30002d88 <uart0_irq+0x5c>
30002d40:	e5d20001 	ldrb	r0, [r2, #1]
30002d44:	e2801001 	add	r1, r0, #1
30002d48:	e5d3c024 	ldrb	ip, [r3, #36]	; 0x24
30002d4c:	e20110ff 	and	r1, r1, #255	; 0xff
30002d50:	e59f3034 	ldr	r3, [pc, #52]	; 30002d8c <uart0_irq+0x60>
30002d54:	e3510040 	cmp	r1, #64	; 0x40
30002d58:	e7c3c000 	strb	ip, [r3, r0]
30002d5c:	03a03000 	moveq	r3, #0
30002d60:	e5c21001 	strb	r1, [r2, #1]
30002d64:	05c23001 	strbeq	r3, [r2, #1]
30002d68:	e3a0344a 	mov	r3, #1241513984	; 0x4a000000
30002d6c:	e3a0c001 	mov	ip, #1
30002d70:	e3a00201 	mov	r0, #268435456	; 0x10000000
30002d74:	e583c018 	str	ip, [r3, #24]
30002d78:	e5830000 	str	r0, [r3]
30002d7c:	e5932010 	ldr	r2, [r3, #16]
30002d80:	e5832010 	str	r2, [r3, #16]
30002d84:	e12fff1e 	bx	lr
30002d88:	30005974 	andcc	r5, r0, r4, ror r9
30002d8c:	300058ec 	andcc	r5, r0, ip, ror #17

30002d90 <irq_handle>:
30002d90:	e3a0344a 	mov	r3, #1241513984	; 0x4a000000
30002d94:	e5932014 	ldr	r2, [r3, #20]
30002d98:	e352000a 	cmp	r2, #10
30002d9c:	0a000002 	beq	30002dac <irq_handle+0x1c>
30002da0:	e352001c 	cmp	r2, #28
30002da4:	112fff1e 	bxne	lr
30002da8:	eaffffdf 	b	30002d2c <uart0_irq>
30002dac:	e3a0c456 	mov	ip, #1442840576	; 0x56000000
30002db0:	e59c0014 	ldr	r0, [ip, #20]
30002db4:	e2002e1e 	and	r2, r0, #480	; 0x1e0
30002db8:	e1e01002 	mvn	r1, r2
30002dbc:	e3a00b01 	mov	r0, #1024	; 0x400
30002dc0:	e58c1014 	str	r1, [ip, #20]
30002dc4:	e5830000 	str	r0, [r3]
30002dc8:	e5932010 	ldr	r2, [r3, #16]
30002dcc:	e5832010 	str	r2, [r3, #16]
30002dd0:	e12fff1e 	bx	lr

30002dd4 <fiq_handle>:
30002dd4:	e3a0c456 	mov	ip, #1442840576	; 0x56000000
30002dd8:	e59c3014 	ldr	r3, [ip, #20]
30002ddc:	e2032e1e 	and	r2, r3, #480	; 0x1e0
30002de0:	e1e01002 	mvn	r1, r2
30002de4:	e3a0344a 	mov	r3, #1241513984	; 0x4a000000
30002de8:	e3a00901 	mov	r0, #16384	; 0x4000
30002dec:	e58c1014 	str	r1, [ip, #20]
30002df0:	e5830000 	str	r0, [r3]
30002df4:	e5932010 	ldr	r2, [r3, #16]
30002df8:	e5832010 	str	r2, [r3, #16]
30002dfc:	e12fff1e 	bx	lr

30002e00 <software_handle>:
30002e00:	e3500080 	cmp	r0, #128	; 0x80
30002e04:	e92d4008 	push	{r3, lr}
30002e08:	0b0009bf 	bleq	3000550c <_OS_TASK_SW>
30002e0c:	e8bd4008 	pop	{r3, lr}
30002e10:	e12fff1e 	bx	lr

30002e14 <OSSemAccept>:
30002e14:	e2503000 	subs	r3, r0, #0
30002e18:	01a00003 	moveq	r0, r3
30002e1c:	012fff1e 	bxeq	lr
30002e20:	e5d32000 	ldrb	r2, [r3]
30002e24:	e3520003 	cmp	r2, #3
30002e28:	0a000001 	beq	30002e34 <OSSemAccept+0x20>
30002e2c:	e3a00000 	mov	r0, #0
30002e30:	e12fff1e 	bx	lr
30002e34:	e52d0004 	push	{r0}		; (str r0, [sp, #-4]!)
30002e38:	e10f0000 	mrs	r0, CPSR
30002e3c:	e38000c0 	orr	r0, r0, #192	; 0xc0
30002e40:	e129f000 	msr	CPSR_fc, r0
30002e44:	e49d0004 	pop	{r0}		; (ldr r0, [sp], #4)
30002e48:	e1d300b2 	ldrh	r0, [r3, #2]
30002e4c:	e3500000 	cmp	r0, #0
30002e50:	12402001 	subne	r2, r0, #1
30002e54:	11c320b2 	strhne	r2, [r3, #2]
30002e58:	e52d0004 	push	{r0}		; (str r0, [sp, #-4]!)
30002e5c:	e10f0000 	mrs	r0, CPSR
30002e60:	e3c000c0 	bic	r0, r0, #192	; 0xc0
30002e64:	e129f000 	msr	CPSR_fc, r0
30002e68:	e49d0004 	pop	{r0}		; (ldr r0, [sp], #4)
30002e6c:	e12fff1e 	bx	lr

30002e70 <OSSemCreate>:
30002e70:	e92d4010 	push	{r4, lr}
30002e74:	e59f1078 	ldr	r1, [pc, #120]	; 30002ef4 <OSSemCreate+0x84>
30002e78:	e5d13000 	ldrb	r3, [r1]
30002e7c:	e3530000 	cmp	r3, #0
30002e80:	13a04000 	movne	r4, #0
30002e84:	1a000017 	bne	30002ee8 <OSSemCreate+0x78>
30002e88:	e52d0004 	push	{r0}		; (str r0, [sp, #-4]!)
30002e8c:	e10f0000 	mrs	r0, CPSR
30002e90:	e38000c0 	orr	r0, r0, #192	; 0xc0
30002e94:	e129f000 	msr	CPSR_fc, r0
30002e98:	e49d0004 	pop	{r0}		; (ldr r0, [sp], #4)
30002e9c:	e59fc054 	ldr	ip, [pc, #84]	; 30002ef8 <OSSemCreate+0x88>
30002ea0:	e59c4000 	ldr	r4, [ip]
30002ea4:	e3540000 	cmp	r4, #0
30002ea8:	15942004 	ldrne	r2, [r4, #4]
30002eac:	158c2000 	strne	r2, [ip]
30002eb0:	e52d0004 	push	{r0}		; (str r0, [sp, #-4]!)
30002eb4:	e10f0000 	mrs	r0, CPSR
30002eb8:	e3c000c0 	bic	r0, r0, #192	; 0xc0
30002ebc:	e129f000 	msr	CPSR_fc, r0
30002ec0:	e49d0004 	pop	{r0}		; (ldr r0, [sp], #4)
30002ec4:	e3540000 	cmp	r4, #0
30002ec8:	0a000006 	beq	30002ee8 <OSSemCreate+0x78>
30002ecc:	e3a02003 	mov	r2, #3
30002ed0:	e1c400b2 	strh	r0, [r4, #2]
30002ed4:	e3a00000 	mov	r0, #0
30002ed8:	e5840004 	str	r0, [r4, #4]
30002edc:	e5c42000 	strb	r2, [r4]
30002ee0:	e1a00004 	mov	r0, r4
30002ee4:	eb0002e1 	bl	30003a70 <OS_EventWaitListInit>
30002ee8:	e1a00004 	mov	r0, r4
30002eec:	e8bd4010 	pop	{r4, lr}
30002ef0:	e12fff1e 	bx	lr
30002ef4:	3000597d 	andcc	r5, r0, sp, ror r9
30002ef8:	30005978 	andcc	r5, r0, r8, ror r9

30002efc <OSSemDel>:
30002efc:	e92d4070 	push	{r4, r5, r6, lr}
30002f00:	e59f3160 	ldr	r3, [pc, #352]	; 30003068 <OSSemDel+0x16c>
30002f04:	e5d33000 	ldrb	r3, [r3]
30002f08:	e3530000 	cmp	r3, #0
30002f0c:	13e03073 	mvnne	r3, #115	; 0x73
30002f10:	e1a04000 	mov	r4, r0
30002f14:	e1a05002 	mov	r5, r2
30002f18:	15c23000 	strbne	r3, [r2]
30002f1c:	1a000008 	bne	30002f44 <OSSemDel+0x48>
30002f20:	e3500000 	cmp	r0, #0
30002f24:	03a03004 	moveq	r3, #4
30002f28:	05c23000 	strbeq	r3, [r2]
30002f2c:	0a000004 	beq	30002f44 <OSSemDel+0x48>
30002f30:	e5d0c000 	ldrb	ip, [r0]
30002f34:	e35c0003 	cmp	ip, #3
30002f38:	13a0c001 	movne	ip, #1
30002f3c:	15c2c000 	strbne	ip, [r2]
30002f40:	0a000002 	beq	30002f50 <OSSemDel+0x54>
30002f44:	e1a00004 	mov	r0, r4
30002f48:	e8bd4070 	pop	{r4, r5, r6, lr}
30002f4c:	e12fff1e 	bx	lr
30002f50:	e52d0004 	push	{r0}		; (str r0, [sp, #-4]!)
30002f54:	e10f0000 	mrs	r0, CPSR
30002f58:	e38000c0 	orr	r0, r0, #192	; 0xc0
30002f5c:	e129f000 	msr	CPSR_fc, r0
30002f60:	e49d0004 	pop	{r0}		; (ldr r0, [sp], #4)
30002f64:	e5d06001 	ldrb	r6, [r0, #1]
30002f68:	e2566000 	subs	r6, r6, #0
30002f6c:	13a06001 	movne	r6, #1
30002f70:	e3510000 	cmp	r1, #0
30002f74:	1a000009 	bne	30002fa0 <OSSemDel+0xa4>
30002f78:	e3560000 	cmp	r6, #0
30002f7c:	0a00002c 	beq	30003034 <OSSemDel+0x138>
30002f80:	e52d0004 	push	{r0}		; (str r0, [sp, #-4]!)
30002f84:	e10f0000 	mrs	r0, CPSR
30002f88:	e3c000c0 	bic	r0, r0, #192	; 0xc0
30002f8c:	e129f000 	msr	CPSR_fc, r0
30002f90:	e49d0004 	pop	{r0}		; (ldr r0, [sp], #4)
30002f94:	e3a00008 	mov	r0, #8
30002f98:	e5c20000 	strb	r0, [r2]
30002f9c:	eaffffe8 	b	30002f44 <OSSemDel+0x48>
30002fa0:	e3510001 	cmp	r1, #1
30002fa4:	0a000007 	beq	30002fc8 <OSSemDel+0xcc>
30002fa8:	e52d0004 	push	{r0}		; (str r0, [sp, #-4]!)
30002fac:	e10f0000 	mrs	r0, CPSR
30002fb0:	e3c000c0 	bic	r0, r0, #192	; 0xc0
30002fb4:	e129f000 	msr	CPSR_fc, r0
30002fb8:	e49d0004 	pop	{r0}		; (ldr r0, [sp], #4)
30002fbc:	e3a00007 	mov	r0, #7
30002fc0:	e5c20000 	strb	r0, [r2]
30002fc4:	eaffffde 	b	30002f44 <OSSemDel+0x48>
30002fc8:	e3560000 	cmp	r6, #0
30002fcc:	0a000006 	beq	30002fec <OSSemDel+0xf0>
30002fd0:	e1a00004 	mov	r0, r4
30002fd4:	e3a01000 	mov	r1, #0
30002fd8:	e3a02001 	mov	r2, #1
30002fdc:	eb000248 	bl	30003904 <OS_EventTaskRdy>
30002fe0:	e5d43001 	ldrb	r3, [r4, #1]
30002fe4:	e3530000 	cmp	r3, #0
30002fe8:	1afffff8 	bne	30002fd0 <OSSemDel+0xd4>
30002fec:	e3a01000 	mov	r1, #0
30002ff0:	e5c41000 	strb	r1, [r4]
30002ff4:	e59f2070 	ldr	r2, [pc, #112]	; 3000306c <OSSemDel+0x170>
30002ff8:	e592c000 	ldr	ip, [r2]
30002ffc:	e5824000 	str	r4, [r2]
30003000:	e584c004 	str	ip, [r4, #4]
30003004:	e52d0004 	push	{r0}		; (str r0, [sp, #-4]!)
30003008:	e10f0000 	mrs	r0, CPSR
3000300c:	e3c000c0 	bic	r0, r0, #192	; 0xc0
30003010:	e129f000 	msr	CPSR_fc, r0
30003014:	e49d0004 	pop	{r0}		; (ldr r0, [sp], #4)
30003018:	e3560001 	cmp	r6, #1
3000301c:	0a000002 	beq	3000302c <OSSemDel+0x130>
30003020:	e3a04000 	mov	r4, #0
30003024:	e5c54000 	strb	r4, [r5]
30003028:	eaffffc5 	b	30002f44 <OSSemDel+0x48>
3000302c:	eb000294 	bl	30003a84 <OS_Sched>
30003030:	eafffffa 	b	30003020 <OSSemDel+0x124>
30003034:	e5c06000 	strb	r6, [r0]
30003038:	e59f102c 	ldr	r1, [pc, #44]	; 3000306c <OSSemDel+0x170>
3000303c:	e5912000 	ldr	r2, [r1]
30003040:	e5810000 	str	r0, [r1]
30003044:	e5802004 	str	r2, [r0, #4]
30003048:	e52d0004 	push	{r0}		; (str r0, [sp, #-4]!)
3000304c:	e10f0000 	mrs	r0, CPSR
30003050:	e3c000c0 	bic	r0, r0, #192	; 0xc0
30003054:	e129f000 	msr	CPSR_fc, r0
30003058:	e49d0004 	pop	{r0}		; (ldr r0, [sp], #4)
3000305c:	e3a04000 	mov	r4, #0
30003060:	e5c54000 	strb	r4, [r5]
30003064:	eaffffb6 	b	30002f44 <OSSemDel+0x48>
30003068:	3000597d 	andcc	r5, r0, sp, ror r9
3000306c:	30005978 	andcc	r5, r0, r8, ror r9

30003070 <OSSemPend>:
30003070:	e92d4010 	push	{r4, lr}
30003074:	e59f3148 	ldr	r3, [pc, #328]	; 300031c4 <OSSemPend+0x154>
30003078:	e5d33000 	ldrb	r3, [r3]
3000307c:	e3530000 	cmp	r3, #0
30003080:	13a03002 	movne	r3, #2
30003084:	e24dd008 	sub	sp, sp, #8
30003088:	e1a04000 	mov	r4, r0
3000308c:	15c23000 	strbne	r3, [r2]
30003090:	1a000008 	bne	300030b8 <OSSemPend+0x48>
30003094:	e3500000 	cmp	r0, #0
30003098:	03a03004 	moveq	r3, #4
3000309c:	05c23000 	strbeq	r3, [r2]
300030a0:	0a000004 	beq	300030b8 <OSSemPend+0x48>
300030a4:	e5d0c000 	ldrb	ip, [r0]
300030a8:	e35c0003 	cmp	ip, #3
300030ac:	13a0c001 	movne	ip, #1
300030b0:	15c2c000 	strbne	ip, [r2]
300030b4:	0a000002 	beq	300030c4 <OSSemPend+0x54>
300030b8:	e28dd008 	add	sp, sp, #8
300030bc:	e8bd4010 	pop	{r4, lr}
300030c0:	e12fff1e 	bx	lr
300030c4:	e52d0004 	push	{r0}		; (str r0, [sp, #-4]!)
300030c8:	e10f0000 	mrs	r0, CPSR
300030cc:	e38000c0 	orr	r0, r0, #192	; 0xc0
300030d0:	e129f000 	msr	CPSR_fc, r0
300030d4:	e49d0004 	pop	{r0}		; (ldr r0, [sp], #4)
300030d8:	e1d030b2 	ldrh	r3, [r0, #2]
300030dc:	e3530000 	cmp	r3, #0
300030e0:	0a000009 	beq	3000310c <OSSemPend+0x9c>
300030e4:	e2431001 	sub	r1, r3, #1
300030e8:	e1c010b2 	strh	r1, [r0, #2]
300030ec:	e52d0004 	push	{r0}		; (str r0, [sp, #-4]!)
300030f0:	e10f0000 	mrs	r0, CPSR
300030f4:	e3c000c0 	bic	r0, r0, #192	; 0xc0
300030f8:	e129f000 	msr	CPSR_fc, r0
300030fc:	e49d0004 	pop	{r0}		; (ldr r0, [sp], #4)
30003100:	e3a00000 	mov	r0, #0
30003104:	e5c20000 	strb	r0, [r2]
30003108:	eaffffea 	b	300030b8 <OSSemPend+0x48>
3000310c:	e59f30b4 	ldr	r3, [pc, #180]	; 300031c8 <OSSemPend+0x158>
30003110:	e593e000 	ldr	lr, [r3]
30003114:	e5de002c 	ldrb	r0, [lr, #44]	; 0x2c
30003118:	e380c001 	orr	ip, r0, #1
3000311c:	e5cec02c 	strb	ip, [lr, #44]	; 0x2c
30003120:	e1ce12ba 	strh	r1, [lr, #42]	; 0x2a
30003124:	e1a00004 	mov	r0, r4
30003128:	e58d2004 	str	r2, [sp, #4]
3000312c:	eb000220 	bl	300039b4 <OS_EventTaskWait>
30003130:	e52d0004 	push	{r0}		; (str r0, [sp, #-4]!)
30003134:	e10f0000 	mrs	r0, CPSR
30003138:	e3c000c0 	bic	r0, r0, #192	; 0xc0
3000313c:	e129f000 	msr	CPSR_fc, r0
30003140:	e49d0004 	pop	{r0}		; (ldr r0, [sp], #4)
30003144:	eb00024e 	bl	30003a84 <OS_Sched>
30003148:	e52d0004 	push	{r0}		; (str r0, [sp, #-4]!)
3000314c:	e10f0000 	mrs	r0, CPSR
30003150:	e38000c0 	orr	r0, r0, #192	; 0xc0
30003154:	e129f000 	msr	CPSR_fc, r0
30003158:	e49d0004 	pop	{r0}		; (ldr r0, [sp], #4)
3000315c:	e59f3064 	ldr	r3, [pc, #100]	; 300031c8 <OSSemPend+0x158>
30003160:	e5931000 	ldr	r1, [r3]
30003164:	e5d1202c 	ldrb	r2, [r1, #44]	; 0x2c
30003168:	e2123001 	ands	r3, r2, #1
3000316c:	e59d2004 	ldr	r2, [sp, #4]
30003170:	1a000008 	bne	30003198 <OSSemPend+0x128>
30003174:	e581301c 	str	r3, [r1, #28]
30003178:	e52d0004 	push	{r0}		; (str r0, [sp, #-4]!)
3000317c:	e10f0000 	mrs	r0, CPSR
30003180:	e3c000c0 	bic	r0, r0, #192	; 0xc0
30003184:	e129f000 	msr	CPSR_fc, r0
30003188:	e49d0004 	pop	{r0}		; (ldr r0, [sp], #4)
3000318c:	e3a0e000 	mov	lr, #0
30003190:	e5c2e000 	strb	lr, [r2]
30003194:	eaffffc7 	b	300030b8 <OSSemPend+0x48>
30003198:	e1a00004 	mov	r0, r4
3000319c:	eb000221 	bl	30003a28 <OS_EventTO>
300031a0:	e52d0004 	push	{r0}		; (str r0, [sp, #-4]!)
300031a4:	e10f0000 	mrs	r0, CPSR
300031a8:	e3c000c0 	bic	r0, r0, #192	; 0xc0
300031ac:	e129f000 	msr	CPSR_fc, r0
300031b0:	e49d0004 	pop	{r0}		; (ldr r0, [sp], #4)
300031b4:	e59d1004 	ldr	r1, [sp, #4]
300031b8:	e3a0200a 	mov	r2, #10
300031bc:	e5c12000 	strb	r2, [r1]
300031c0:	eaffffbc 	b	300030b8 <OSSemPend+0x48>
300031c4:	3000597d 	andcc	r5, r0, sp, ror r9
300031c8:	30005980 	andcc	r5, r0, r0, lsl #19

300031cc <OSSemPost>:
300031cc:	e3500000 	cmp	r0, #0
300031d0:	e92d4008 	push	{r3, lr}
300031d4:	03a00004 	moveq	r0, #4
300031d8:	0a000003 	beq	300031ec <OSSemPost+0x20>
300031dc:	e5d03000 	ldrb	r3, [r0]
300031e0:	e3530003 	cmp	r3, #3
300031e4:	13a00001 	movne	r0, #1
300031e8:	0a000001 	beq	300031f4 <OSSemPost+0x28>
300031ec:	e8bd4008 	pop	{r3, lr}
300031f0:	e12fff1e 	bx	lr
300031f4:	e52d0004 	push	{r0}		; (str r0, [sp, #-4]!)
300031f8:	e10f0000 	mrs	r0, CPSR
300031fc:	e38000c0 	orr	r0, r0, #192	; 0xc0
30003200:	e129f000 	msr	CPSR_fc, r0
30003204:	e49d0004 	pop	{r0}		; (ldr r0, [sp], #4)
30003208:	e5d01001 	ldrb	r1, [r0, #1]
3000320c:	e3510000 	cmp	r1, #0
30003210:	1a000013 	bne	30003264 <OSSemPost+0x98>
30003214:	e1d030b2 	ldrh	r3, [r0, #2]
30003218:	e59f2070 	ldr	r2, [pc, #112]	; 30003290 <OSSemPost+0xc4>
3000321c:	e1530002 	cmp	r3, r2
30003220:	0a000008 	beq	30003248 <OSSemPost+0x7c>
30003224:	e283c001 	add	ip, r3, #1
30003228:	e1c0c0b2 	strh	ip, [r0, #2]
3000322c:	e52d0004 	push	{r0}		; (str r0, [sp, #-4]!)
30003230:	e10f0000 	mrs	r0, CPSR
30003234:	e3c000c0 	bic	r0, r0, #192	; 0xc0
30003238:	e129f000 	msr	CPSR_fc, r0
3000323c:	e49d0004 	pop	{r0}		; (ldr r0, [sp], #4)
30003240:	e3a00000 	mov	r0, #0
30003244:	eaffffe8 	b	300031ec <OSSemPost+0x20>
30003248:	e52d0004 	push	{r0}		; (str r0, [sp, #-4]!)
3000324c:	e10f0000 	mrs	r0, CPSR
30003250:	e3c000c0 	bic	r0, r0, #192	; 0xc0
30003254:	e129f000 	msr	CPSR_fc, r0
30003258:	e49d0004 	pop	{r0}		; (ldr r0, [sp], #4)
3000325c:	e3a00032 	mov	r0, #50	; 0x32
30003260:	eaffffe1 	b	300031ec <OSSemPost+0x20>
30003264:	e3a01000 	mov	r1, #0
30003268:	e3a02001 	mov	r2, #1
3000326c:	eb0001a4 	bl	30003904 <OS_EventTaskRdy>
30003270:	e52d0004 	push	{r0}		; (str r0, [sp, #-4]!)
30003274:	e10f0000 	mrs	r0, CPSR
30003278:	e3c000c0 	bic	r0, r0, #192	; 0xc0
3000327c:	e129f000 	msr	CPSR_fc, r0
30003280:	e49d0004 	pop	{r0}		; (ldr r0, [sp], #4)
30003284:	eb0001fe 	bl	30003a84 <OS_Sched>
30003288:	e3a00000 	mov	r0, #0
3000328c:	eaffffd6 	b	300031ec <OSSemPost+0x20>
30003290:	0000ffff 	strdeq	pc, [r0], -pc	; <UNPREDICTABLE>

30003294 <OSSemQuery>:
30003294:	e3500000 	cmp	r0, #0
30003298:	03a00004 	moveq	r0, #4
3000329c:	012fff1e 	bxeq	lr
300032a0:	e5d03000 	ldrb	r3, [r0]
300032a4:	e3530003 	cmp	r3, #3
300032a8:	0a000001 	beq	300032b4 <OSSemQuery+0x20>
300032ac:	e3a00001 	mov	r0, #1
300032b0:	e12fff1e 	bx	lr
300032b4:	e52d0004 	push	{r0}		; (str r0, [sp, #-4]!)
300032b8:	e10f0000 	mrs	r0, CPSR
300032bc:	e38000c0 	orr	r0, r0, #192	; 0xc0
300032c0:	e129f000 	msr	CPSR_fc, r0
300032c4:	e49d0004 	pop	{r0}		; (ldr r0, [sp], #4)
300032c8:	e5d03001 	ldrb	r3, [r0, #1]
300032cc:	e5c13004 	strb	r3, [r1, #4]
300032d0:	e5d0c008 	ldrb	ip, [r0, #8]
300032d4:	e5c1c002 	strb	ip, [r1, #2]
300032d8:	e5d02009 	ldrb	r2, [r0, #9]
300032dc:	e5c12003 	strb	r2, [r1, #3]
300032e0:	e1d000b2 	ldrh	r0, [r0, #2]
300032e4:	e1c100b0 	strh	r0, [r1]
300032e8:	e52d0004 	push	{r0}		; (str r0, [sp, #-4]!)
300032ec:	e10f0000 	mrs	r0, CPSR
300032f0:	e3c000c0 	bic	r0, r0, #192	; 0xc0
300032f4:	e129f000 	msr	CPSR_fc, r0
300032f8:	e49d0004 	pop	{r0}		; (ldr r0, [sp], #4)
300032fc:	e3a00000 	mov	r0, #0
30003300:	e12fff1e 	bx	lr

30003304 <OS_TaskIdle>:
30003304:	e92d4010 	push	{r4, lr}
30003308:	e59f4038 	ldr	r4, [pc, #56]	; 30003348 <OS_TaskIdle+0x44>
3000330c:	e52d0004 	push	{r0}		; (str r0, [sp, #-4]!)
30003310:	e10f0000 	mrs	r0, CPSR
30003314:	e38000c0 	orr	r0, r0, #192	; 0xc0
30003318:	e129f000 	msr	CPSR_fc, r0
3000331c:	e49d0004 	pop	{r0}		; (ldr r0, [sp], #4)
30003320:	e5940000 	ldr	r0, [r4]
30003324:	e2803001 	add	r3, r0, #1
30003328:	e5843000 	str	r3, [r4]
3000332c:	e52d0004 	push	{r0}		; (str r0, [sp, #-4]!)
30003330:	e10f0000 	mrs	r0, CPSR
30003334:	e3c000c0 	bic	r0, r0, #192	; 0xc0
30003338:	e129f000 	msr	CPSR_fc, r0
3000333c:	e49d0004 	pop	{r0}		; (ldr r0, [sp], #4)
30003340:	eb0002af 	bl	30003e04 <OSTaskIdleHook>
30003344:	eafffff0 	b	3000330c <OS_TaskIdle+0x8>
30003348:	30005834 	andcc	r5, r0, r4, lsr r8

3000334c <OSInit>:
3000334c:	e92d47f0 	push	{r4, r5, r6, r7, r8, r9, sl, lr}
30003350:	e59f9190 	ldr	r9, [pc, #400]	; 300034e8 <OSInit+0x19c>
30003354:	e3a04000 	mov	r4, #0
30003358:	e24dd018 	sub	sp, sp, #24
3000335c:	eb0002a4 	bl	30003df4 <OSInitHookBegin>
30003360:	e5894000 	str	r4, [r9]
30003364:	e59f9180 	ldr	r9, [pc, #384]	; 300034ec <OSInit+0x1a0>
30003368:	e59fc180 	ldr	ip, [pc, #384]	; 300034f0 <OSInit+0x1a4>
3000336c:	e5c94000 	strb	r4, [r9]
30003370:	e59f917c 	ldr	r9, [pc, #380]	; 300034f4 <OSInit+0x1a8>
30003374:	e5cc4000 	strb	r4, [ip]
30003378:	e5c94000 	strb	r4, [r9]
3000337c:	e5cc4001 	strb	r4, [ip, #1]
30003380:	e59f9170 	ldr	r9, [pc, #368]	; 300034f8 <OSInit+0x1ac>
30003384:	e59fc170 	ldr	ip, [pc, #368]	; 300034fc <OSInit+0x1b0>
30003388:	e5c94000 	strb	r4, [r9]
3000338c:	e5cc4000 	strb	r4, [ip]
30003390:	e59f9168 	ldr	r9, [pc, #360]	; 30003500 <OSInit+0x1b4>
30003394:	e59fc168 	ldr	ip, [pc, #360]	; 30003504 <OSInit+0x1b8>
30003398:	e5c94000 	strb	r4, [r9]
3000339c:	e5cc4000 	strb	r4, [ip]
300033a0:	e59f9160 	ldr	r9, [pc, #352]	; 30003508 <OSInit+0x1bc>
300033a4:	e59fc160 	ldr	ip, [pc, #352]	; 3000350c <OSInit+0x1c0>
300033a8:	e5894000 	str	r4, [r9]
300033ac:	e58c4000 	str	r4, [ip]
300033b0:	e59f9158 	ldr	r9, [pc, #344]	; 30003510 <OSInit+0x1c4>
300033b4:	e59fc158 	ldr	ip, [pc, #344]	; 30003514 <OSInit+0x1c8>
300033b8:	e59f3158 	ldr	r3, [pc, #344]	; 30003518 <OSInit+0x1cc>
300033bc:	e59f2158 	ldr	r2, [pc, #344]	; 3000351c <OSInit+0x1d0>
300033c0:	e5894000 	str	r4, [r9]
300033c4:	e58c4000 	str	r4, [ip]
300033c8:	e59f9150 	ldr	r9, [pc, #336]	; 30003520 <OSInit+0x1d4>
300033cc:	e59fc150 	ldr	ip, [pc, #336]	; 30003524 <OSInit+0x1d8>
300033d0:	e59f1150 	ldr	r1, [pc, #336]	; 30003528 <OSInit+0x1dc>
300033d4:	e283a034 	add	sl, r3, #52	; 0x34
300033d8:	e2838068 	add	r8, r3, #104	; 0x68
300033dc:	e283709c 	add	r7, r3, #156	; 0x9c
300033e0:	e28360d0 	add	r6, r3, #208	; 0xd0
300033e4:	e2835f41 	add	r5, r3, #260	; 0x104
300033e8:	e283ef4e 	add	lr, r3, #312	; 0x138
300033ec:	e5824000 	str	r4, [r2]
300033f0:	e5824004 	str	r4, [r2, #4]
300033f4:	e5824008 	str	r4, [r2, #8]
300033f8:	e582400c 	str	r4, [r2, #12]
300033fc:	e5824010 	str	r4, [r2, #16]
30003400:	e5824014 	str	r4, [r2, #20]
30003404:	e5824018 	str	r4, [r2, #24]
30003408:	e582401c 	str	r4, [r2, #28]
3000340c:	e5824020 	str	r4, [r2, #32]
30003410:	e5824024 	str	r4, [r2, #36]	; 0x24
30003414:	e5824028 	str	r4, [r2, #40]	; 0x28
30003418:	e582402c 	str	r4, [r2, #44]	; 0x2c
3000341c:	e5824030 	str	r4, [r2, #48]	; 0x30
30003420:	e2832f8f 	add	r2, r3, #572	; 0x23c
30003424:	e58c4000 	str	r4, [ip]
30003428:	e583a014 	str	sl, [r3, #20]
3000342c:	e5838048 	str	r8, [r3, #72]	; 0x48
30003430:	e583707c 	str	r7, [r3, #124]	; 0x7c
30003434:	e58360b0 	str	r6, [r3, #176]	; 0xb0
30003438:	e58350e4 	str	r5, [r3, #228]	; 0xe4
3000343c:	e5c94000 	strb	r4, [r9]
30003440:	e583e118 	str	lr, [r3, #280]	; 0x118
30003444:	e583221c 	str	r2, [r3, #540]	; 0x21c
30003448:	e59f20dc 	ldr	r2, [pc, #220]	; 3000352c <OSInit+0x1e0>
3000344c:	e1a00001 	mov	r0, r1
30003450:	e283ef75 	add	lr, r3, #468	; 0x1d4
30003454:	e283cf82 	add	ip, r3, #520	; 0x208
30003458:	e2836f5b 	add	r6, r3, #364	; 0x16c
3000345c:	e2835e1a 	add	r5, r3, #416	; 0x1a0
30003460:	e4c0400c 	strb	r4, [r0], #12
30003464:	e583e1b4 	str	lr, [r3, #436]	; 0x1b4
30003468:	e583c1e8 	str	ip, [r3, #488]	; 0x1e8
3000346c:	e5823000 	str	r3, [r2]
30003470:	e583614c 	str	r6, [r3, #332]	; 0x14c
30003474:	e5835180 	str	r5, [r3, #384]	; 0x180
30003478:	e5834250 	str	r4, [r3, #592]	; 0x250
3000347c:	e59f30ac 	ldr	r3, [pc, #172]	; 30003530 <OSInit+0x1e4>
30003480:	e5810004 	str	r0, [r1, #4]
30003484:	e5c1400c 	strb	r4, [r1, #12]
30003488:	e5814010 	str	r4, [r1, #16]
3000348c:	e5831000 	str	r1, [r3]
30003490:	ebfff709 	bl	300010bc <OS_FlagInit>
30003494:	eb0007ca 	bl	300053c4 <OS_MemInit>
30003498:	eb000595 	bl	30004af4 <OS_QInit>
3000349c:	e59f2090 	ldr	r2, [pc, #144]	; 30003534 <OSInit+0x1e8>
300034a0:	e59fc090 	ldr	ip, [pc, #144]	; 30003538 <OSInit+0x1ec>
300034a4:	e58dc000 	str	ip, [sp]
300034a8:	e242ce7f 	sub	ip, r2, #2032	; 0x7f0
300034ac:	e24cc00c 	sub	ip, ip, #12
300034b0:	e58dc004 	str	ip, [sp, #4]
300034b4:	e3a0cc02 	mov	ip, #512	; 0x200
300034b8:	e1a01004 	mov	r1, r4
300034bc:	e3a0300c 	mov	r3, #12
300034c0:	e58dc008 	str	ip, [sp, #8]
300034c4:	e59f0070 	ldr	r0, [pc, #112]	; 3000353c <OSInit+0x1f0>
300034c8:	e3a0c003 	mov	ip, #3
300034cc:	e58dc010 	str	ip, [sp, #16]
300034d0:	e58d400c 	str	r4, [sp, #12]
300034d4:	ebfffbf8 	bl	300024bc <OSTaskCreateExt>
300034d8:	eb000246 	bl	30003df8 <OSInitHookEnd>
300034dc:	e28dd018 	add	sp, sp, #24
300034e0:	e8bd47f0 	pop	{r4, r5, r6, r7, r8, r9, sl, lr}
300034e4:	e12fff1e 	bx	lr
300034e8:	30005984 	andcc	r5, r0, r4, lsl #19
300034ec:	3000597d 	andcc	r5, r0, sp, ror r9
300034f0:	30005970 	andcc	r5, r0, r0, ror r9
300034f4:	30005830 	andcc	r5, r0, r0, lsr r8
300034f8:	3000592c 	andcc	r5, r0, ip, lsr #18
300034fc:	30005878 	andcc	r5, r0, r8, ror r8
30003500:	30005831 	andcc	r5, r0, r1, lsr r8
30003504:	30005838 	andcc	r5, r0, r8, lsr r8
30003508:	300058e4 	andcc	r5, r0, r4, ror #17
3000350c:	30005964 	andcc	r5, r0, r4, ror #18
30003510:	30005834 	andcc	r5, r0, r4, lsr r8
30003514:	30005980 	andcc	r5, r0, r0, lsl #19
30003518:	300061a0 	andcc	r6, r0, r0, lsr #3
3000351c:	30006414 	andcc	r6, r0, r4, lsl r4
30003520:	3000596c 	andcc	r5, r0, ip, ror #18
30003524:	3000587c 	andcc	r5, r0, ip, ror r8
30003528:	30006188 	andcc	r6, r0, r8, lsl #3
3000352c:	300058e8 	andcc	r5, r0, r8, ror #17
30003530:	30005978 	andcc	r5, r0, r8, ror r9
30003534:	30006184 	andcc	r6, r0, r4, lsl #3
30003538:	0000ffff 	strdeq	pc, [r0], -pc	; <UNPREDICTABLE>
3000353c:	30003304 	andcc	r3, r0, r4, lsl #6

30003540 <OSIntEnter>:
30003540:	e59f0020 	ldr	r0, [pc, #32]	; 30003568 <OSIntEnter+0x28>
30003544:	e5d03000 	ldrb	r3, [r0]
30003548:	e3530001 	cmp	r3, #1
3000354c:	112fff1e 	bxne	lr
30003550:	e59f1014 	ldr	r1, [pc, #20]	; 3000356c <OSIntEnter+0x2c>
30003554:	e5d12000 	ldrb	r2, [r1]
30003558:	e35200ff 	cmp	r2, #255	; 0xff
3000355c:	12822001 	addne	r2, r2, #1
30003560:	15c12000 	strbne	r2, [r1]
30003564:	e12fff1e 	bx	lr
30003568:	30005831 	andcc	r5, r0, r1, lsr r8
3000356c:	3000597d 	andcc	r5, r0, sp, ror r9

30003570 <OSIntExit>:
30003570:	e92d4008 	push	{r3, lr}
30003574:	e59f00dc 	ldr	r0, [pc, #220]	; 30003658 <OSIntExit+0xe8>
30003578:	e5d03000 	ldrb	r3, [r0]
3000357c:	e3530001 	cmp	r3, #1
30003580:	0a000001 	beq	3000358c <OSIntExit+0x1c>
30003584:	e8bd4008 	pop	{r3, lr}
30003588:	e12fff1e 	bx	lr
3000358c:	e52d0004 	push	{r0}		; (str r0, [sp, #-4]!)
30003590:	e10f0000 	mrs	r0, CPSR
30003594:	e38000c0 	orr	r0, r0, #192	; 0xc0
30003598:	e129f000 	msr	CPSR_fc, r0
3000359c:	e49d0004 	pop	{r0}		; (ldr r0, [sp], #4)
300035a0:	e59f30b4 	ldr	r3, [pc, #180]	; 3000365c <OSIntExit+0xec>
300035a4:	e5d32000 	ldrb	r2, [r3]
300035a8:	e3520000 	cmp	r2, #0
300035ac:	0a00000a 	beq	300035dc <OSIntExit+0x6c>
300035b0:	e2421001 	sub	r1, r2, #1
300035b4:	e20120ff 	and	r2, r1, #255	; 0xff
300035b8:	e3520000 	cmp	r2, #0
300035bc:	e5c32000 	strb	r2, [r3]
300035c0:	0a000005 	beq	300035dc <OSIntExit+0x6c>
300035c4:	e52d0004 	push	{r0}		; (str r0, [sp, #-4]!)
300035c8:	e10f0000 	mrs	r0, CPSR
300035cc:	e3c000c0 	bic	r0, r0, #192	; 0xc0
300035d0:	e129f000 	msr	CPSR_fc, r0
300035d4:	e49d0004 	pop	{r0}		; (ldr r0, [sp], #4)
300035d8:	eaffffe9 	b	30003584 <OSIntExit+0x14>
300035dc:	e59f307c 	ldr	r3, [pc, #124]	; 30003660 <OSIntExit+0xf0>
300035e0:	e5d3c000 	ldrb	ip, [r3]
300035e4:	e35c0000 	cmp	ip, #0
300035e8:	1afffff5 	bne	300035c4 <OSIntExit+0x54>
300035ec:	e59f1070 	ldr	r1, [pc, #112]	; 30003664 <OSIntExit+0xf4>
300035f0:	e59f2070 	ldr	r2, [pc, #112]	; 30003668 <OSIntExit+0xf8>
300035f4:	e5d1c000 	ldrb	ip, [r1]
300035f8:	e59f006c 	ldr	r0, [pc, #108]	; 3000366c <OSIntExit+0xfc>
300035fc:	e7d2c00c 	ldrb	ip, [r2, ip]
30003600:	e7d0300c 	ldrb	r3, [r0, ip]
30003604:	e59f1064 	ldr	r1, [pc, #100]	; 30003670 <OSIntExit+0x100>
30003608:	e7d20003 	ldrb	r0, [r2, r3]
3000360c:	e5d13000 	ldrb	r3, [r1]
30003610:	e080218c 	add	r2, r0, ip, lsl #3
30003614:	e20220ff 	and	r2, r2, #255	; 0xff
30003618:	e59f1054 	ldr	r1, [pc, #84]	; 30003674 <OSIntExit+0x104>
3000361c:	e59f0054 	ldr	r0, [pc, #84]	; 30003678 <OSIntExit+0x108>
30003620:	e1530002 	cmp	r3, r2
30003624:	e5c1c000 	strb	ip, [r1]
30003628:	e5c02000 	strb	r2, [r0]
3000362c:	0affffe4 	beq	300035c4 <OSIntExit+0x54>
30003630:	e59f3044 	ldr	r3, [pc, #68]	; 3000367c <OSIntExit+0x10c>
30003634:	e59f1044 	ldr	r1, [pc, #68]	; 30003680 <OSIntExit+0x110>
30003638:	e593c000 	ldr	ip, [r3]
3000363c:	e7912102 	ldr	r2, [r1, r2, lsl #2]
30003640:	e59f003c 	ldr	r0, [pc, #60]	; 30003684 <OSIntExit+0x114>
30003644:	e28ce001 	add	lr, ip, #1
30003648:	e5802000 	str	r2, [r0]
3000364c:	e583e000 	str	lr, [r3]
30003650:	eb00078b 	bl	30005484 <OSIntCtxSw>
30003654:	eaffffda 	b	300035c4 <OSIntExit+0x54>
30003658:	30005831 	andcc	r5, r0, r1, lsr r8
3000365c:	3000597d 	andcc	r5, r0, sp, ror r9
30003660:	30005830 	andcc	r5, r0, r0, lsr r8
30003664:	3000596c 	andcc	r5, r0, ip, ror #18
30003668:	30005588 	andcc	r5, r0, r8, lsl #11
3000366c:	30005970 	andcc	r5, r0, r0, ror r9
30003670:	30005878 	andcc	r5, r0, r8, ror r8
30003674:	3000597c 	andcc	r5, r0, ip, ror r9
30003678:	30005838 	andcc	r5, r0, r8, lsr r8
3000367c:	300058e4 	andcc	r5, r0, r4, ror #17
30003680:	30006414 	andcc	r6, r0, r4, lsl r4
30003684:	30005964 	andcc	r5, r0, r4, ror #18

30003688 <OSSchedLock>:
30003688:	e59f0048 	ldr	r0, [pc, #72]	; 300036d8 <OSSchedLock+0x50>
3000368c:	e5d03000 	ldrb	r3, [r0]
30003690:	e3530001 	cmp	r3, #1
30003694:	112fff1e 	bxne	lr
30003698:	e52d0004 	push	{r0}		; (str r0, [sp, #-4]!)
3000369c:	e10f0000 	mrs	r0, CPSR
300036a0:	e38000c0 	orr	r0, r0, #192	; 0xc0
300036a4:	e129f000 	msr	CPSR_fc, r0
300036a8:	e49d0004 	pop	{r0}		; (ldr r0, [sp], #4)
300036ac:	e59f1028 	ldr	r1, [pc, #40]	; 300036dc <OSSchedLock+0x54>
300036b0:	e5d12000 	ldrb	r2, [r1]
300036b4:	e35200ff 	cmp	r2, #255	; 0xff
300036b8:	12822001 	addne	r2, r2, #1
300036bc:	15c12000 	strbne	r2, [r1]
300036c0:	e52d0004 	push	{r0}		; (str r0, [sp, #-4]!)
300036c4:	e10f0000 	mrs	r0, CPSR
300036c8:	e3c000c0 	bic	r0, r0, #192	; 0xc0
300036cc:	e129f000 	msr	CPSR_fc, r0
300036d0:	e49d0004 	pop	{r0}		; (ldr r0, [sp], #4)
300036d4:	e12fff1e 	bx	lr
300036d8:	30005831 	andcc	r5, r0, r1, lsr r8
300036dc:	30005830 	andcc	r5, r0, r0, lsr r8

300036e0 <OSStart>:
300036e0:	e92d4030 	push	{r4, r5, lr}
300036e4:	e59f30c0 	ldr	r3, [pc, #192]	; 300037ac <OSStart+0xcc>
300036e8:	e24dd014 	sub	sp, sp, #20
300036ec:	e2832c01 	add	r2, r3, #256	; 0x100
300036f0:	e8920007 	ldm	r2, {r0, r1, r2}
300036f4:	e28d4004 	add	r4, sp, #4
300036f8:	e1a0c004 	mov	ip, r4
300036fc:	e8ac0003 	stmia	ip!, {r0, r1}
30003700:	e59f10a8 	ldr	r1, [pc, #168]	; 300037b0 <OSStart+0xd0>
30003704:	e1a0000c 	mov	r0, ip
30003708:	e5d1c000 	ldrb	ip, [r1]
3000370c:	e1a01822 	lsr	r1, r2, #16
30003710:	e35c0000 	cmp	ip, #0
30003714:	e1c020b0 	strh	r2, [r0]
30003718:	e5cd100e 	strb	r1, [sp, #14]
3000371c:	1a00001f 	bne	300037a0 <OSStart+0xc0>
30003720:	e59f008c 	ldr	r0, [pc, #140]	; 300037b4 <OSStart+0xd4>
30003724:	e5d05000 	ldrb	r5, [r0]
30003728:	e59fc088 	ldr	ip, [pc, #136]	; 300037b8 <OSStart+0xd8>
3000372c:	e7d32005 	ldrb	r2, [r3, r5]
30003730:	e7dc1002 	ldrb	r1, [ip, r2]
30003734:	e7d3e001 	ldrb	lr, [r3, r1]
30003738:	e59f507c 	ldr	r5, [pc, #124]	; 300037bc <OSStart+0xdc>
3000373c:	e08e0182 	add	r0, lr, r2, lsl #3
30003740:	e20030ff 	and	r3, r0, #255	; 0xff
30003744:	e795e103 	ldr	lr, [r5, r3, lsl #2]
30003748:	e59fc070 	ldr	ip, [pc, #112]	; 300037c0 <OSStart+0xe0>
3000374c:	e59f5070 	ldr	r5, [pc, #112]	; 300037c4 <OSStart+0xe4>
30003750:	e5cc3000 	strb	r3, [ip]
30003754:	e59f106c 	ldr	r1, [pc, #108]	; 300037c8 <OSStart+0xe8>
30003758:	e5c53000 	strb	r3, [r5]
3000375c:	e59f3068 	ldr	r3, [pc, #104]	; 300037cc <OSStart+0xec>
30003760:	e581e000 	str	lr, [r1]
30003764:	e583e000 	str	lr, [r3]
30003768:	e59f0060 	ldr	r0, [pc, #96]	; 300037d0 <OSStart+0xf0>
3000376c:	ebfff4e6 	bl	30000b0c <putc_string>
30003770:	e59f005c 	ldr	r0, [pc, #92]	; 300037d4 <OSStart+0xf4>
30003774:	ebfff4e4 	bl	30000b0c <putc_string>
30003778:	e59f0050 	ldr	r0, [pc, #80]	; 300037d0 <OSStart+0xf0>
3000377c:	ebfff4e2 	bl	30000b0c <putc_string>
30003780:	e59f0050 	ldr	r0, [pc, #80]	; 300037d8 <OSStart+0xf8>
30003784:	ebfff4e0 	bl	30000b0c <putc_string>
30003788:	e1a01004 	mov	r1, r4
3000378c:	e5d50000 	ldrb	r0, [r5]
30003790:	ebfff4ee 	bl	30000b50 <num_to_char>
30003794:	e1a00004 	mov	r0, r4
30003798:	ebfff4db 	bl	30000b0c <putc_string>
3000379c:	eb00072e 	bl	3000545c <OSStartHighRdy>
300037a0:	e28dd014 	add	sp, sp, #20
300037a4:	e8bd4030 	pop	{r4, r5, lr}
300037a8:	e12fff1e 	bx	lr
300037ac:	30005588 	andcc	r5, r0, r8, lsl #11
300037b0:	30005831 	andcc	r5, r0, r1, lsr r8
300037b4:	3000596c 	andcc	r5, r0, ip, ror #18
300037b8:	30005970 	andcc	r5, r0, r0, ror r9
300037bc:	30006414 	andcc	r6, r0, r4, lsl r4
300037c0:	30005878 	andcc	r5, r0, r8, ror r8
300037c4:	30005838 	andcc	r5, r0, r8, lsr r8
300037c8:	30005964 	andcc	r5, r0, r4, ror #18
300037cc:	30005980 	andcc	r5, r0, r0, lsl #19
300037d0:	300056b8 			; <UNDEFINED> instruction: 0x300056b8
300037d4:	300057ac 	andcc	r5, r0, ip, lsr #15
300037d8:	300057c4 	andcc	r5, r0, r4, asr #15

300037dc <OSTimeTick>:
300037dc:	e92d4070 	push	{r4, r5, r6, lr}
300037e0:	eb0001c1 	bl	30003eec <OSTimeTickHook>
300037e4:	e52d0004 	push	{r0}		; (str r0, [sp, #-4]!)
300037e8:	e10f0000 	mrs	r0, CPSR
300037ec:	e38000c0 	orr	r0, r0, #192	; 0xc0
300037f0:	e129f000 	msr	CPSR_fc, r0
300037f4:	e49d0004 	pop	{r0}		; (ldr r0, [sp], #4)
300037f8:	e59f10e4 	ldr	r1, [pc, #228]	; 300038e4 <OSTimeTick+0x108>
300037fc:	e591c000 	ldr	ip, [r1]
30003800:	e28c2001 	add	r2, ip, #1
30003804:	e5812000 	str	r2, [r1]
30003808:	e52d0004 	push	{r0}		; (str r0, [sp, #-4]!)
3000380c:	e10f0000 	mrs	r0, CPSR
30003810:	e3c000c0 	bic	r0, r0, #192	; 0xc0
30003814:	e129f000 	msr	CPSR_fc, r0
30003818:	e49d0004 	pop	{r0}		; (ldr r0, [sp], #4)
3000381c:	e59f00c4 	ldr	r0, [pc, #196]	; 300038e8 <OSTimeTick+0x10c>
30003820:	e5d03000 	ldrb	r3, [r0]
30003824:	e3530001 	cmp	r3, #1
30003828:	0a000001 	beq	30003834 <OSTimeTick+0x58>
3000382c:	e8bd4070 	pop	{r4, r5, r6, lr}
30003830:	e12fff1e 	bx	lr
30003834:	e59f30b0 	ldr	r3, [pc, #176]	; 300038ec <OSTimeTick+0x110>
30003838:	e5933000 	ldr	r3, [r3]
3000383c:	e5d3e02d 	ldrb	lr, [r3, #45]	; 0x2d
30003840:	e35e000c 	cmp	lr, #12
30003844:	0afffff8 	beq	3000382c <OSTimeTick+0x50>
30003848:	e59f40a0 	ldr	r4, [pc, #160]	; 300038f0 <OSTimeTick+0x114>
3000384c:	e59fc0a0 	ldr	ip, [pc, #160]	; 300038f4 <OSTimeTick+0x118>
30003850:	e5d40000 	ldrb	r0, [r4]
30003854:	e52d0004 	push	{r0}		; (str r0, [sp, #-4]!)
30003858:	e10f0000 	mrs	r0, CPSR
3000385c:	e38000c0 	orr	r0, r0, #192	; 0xc0
30003860:	e129f000 	msr	CPSR_fc, r0
30003864:	e49d0004 	pop	{r0}		; (ldr r0, [sp], #4)
30003868:	e1d322ba 	ldrh	r2, [r3, #42]	; 0x2a
3000386c:	e242e001 	sub	lr, r2, #1
30003870:	e1a0180e 	lsl	r1, lr, #16
30003874:	e3520000 	cmp	r2, #0
30003878:	e1a01821 	lsr	r1, r1, #16
3000387c:	0a00000d 	beq	300038b8 <OSTimeTick+0xdc>
30003880:	e3510000 	cmp	r1, #0
30003884:	e1c312ba 	strh	r1, [r3, #42]	; 0x2a
30003888:	1a00000a 	bne	300038b8 <OSTimeTick+0xdc>
3000388c:	e5d3202c 	ldrb	r2, [r3, #44]	; 0x2c
30003890:	e3120008 	tst	r2, #8
30003894:	05d3202f 	ldrbeq	r2, [r3, #47]	; 0x2f
30003898:	05d31030 	ldrbeq	r1, [r3, #48]	; 0x30
3000389c:	07dc6002 	ldrbeq	r6, [ip, r2]
300038a0:	05d35031 	ldrbeq	r5, [r3, #49]	; 0x31
300038a4:	01861001 	orreq	r1, r6, r1
300038a8:	13a02001 	movne	r2, #1
300038ac:	07cc1002 	strbeq	r1, [ip, r2]
300038b0:	11c322ba 	strhne	r2, [r3, #42]	; 0x2a
300038b4:	01800005 	orreq	r0, r0, r5
300038b8:	e5933014 	ldr	r3, [r3, #20]
300038bc:	e52d0004 	push	{r0}		; (str r0, [sp, #-4]!)
300038c0:	e10f0000 	mrs	r0, CPSR
300038c4:	e3c000c0 	bic	r0, r0, #192	; 0xc0
300038c8:	e129f000 	msr	CPSR_fc, r0
300038cc:	e49d0004 	pop	{r0}		; (ldr r0, [sp], #4)
300038d0:	e5d3102d 	ldrb	r1, [r3, #45]	; 0x2d
300038d4:	e351000c 	cmp	r1, #12
300038d8:	1affffdd 	bne	30003854 <OSTimeTick+0x78>
300038dc:	e5c40000 	strb	r0, [r4]
300038e0:	eaffffd1 	b	3000382c <OSTimeTick+0x50>
300038e4:	30005984 	andcc	r5, r0, r4, lsl #19
300038e8:	30005831 	andcc	r5, r0, r1, lsr r8
300038ec:	3000587c 	andcc	r5, r0, ip, ror r8
300038f0:	3000596c 	andcc	r5, r0, ip, ror #18
300038f4:	30005970 	andcc	r5, r0, r0, ror r9

300038f8 <OSVersion>:
300038f8:	e3a000fc 	mov	r0, #252	; 0xfc
300038fc:	e12fff1e 	bx	lr

30003900 <OS_Dummy>:
30003900:	e12fff1e 	bx	lr

30003904 <OS_EventTaskRdy>:
30003904:	e92d05f0 	push	{r4, r5, r6, r7, r8, sl}
30003908:	e59fc094 	ldr	ip, [pc, #148]	; 300039a4 <OS_EventTaskRdy+0xa0>
3000390c:	e5d08001 	ldrb	r8, [r0, #1]
30003910:	e7dc3008 	ldrb	r3, [ip, r8]
30003914:	e0805003 	add	r5, r0, r3
30003918:	e5d56008 	ldrb	r6, [r5, #8]
3000391c:	e1a04000 	mov	r4, r0
30003920:	e7dc0006 	ldrb	r0, [ip, r6]
30003924:	e08c7000 	add	r7, ip, r0
30003928:	e5d7710c 	ldrb	r7, [r7, #268]	; 0x10c
3000392c:	e08ca003 	add	sl, ip, r3
30003930:	e1c66007 	bic	r6, r6, r7
30003934:	e5daa10c 	ldrb	sl, [sl, #268]	; 0x10c
30003938:	e3560000 	cmp	r6, #0
3000393c:	01c8800a 	biceq	r8, r8, sl
30003940:	05c48001 	strbeq	r8, [r4, #1]
30003944:	e5c56008 	strb	r6, [r5, #8]
30003948:	e0800183 	add	r0, r0, r3, lsl #3
3000394c:	e59fc054 	ldr	ip, [pc, #84]	; 300039a8 <OS_EventTaskRdy+0xa4>
30003950:	e20000ff 	and	r0, r0, #255	; 0xff
30003954:	e79cc100 	ldr	ip, [ip, r0, lsl #2]
30003958:	e5dc402c 	ldrb	r4, [ip, #44]	; 0x2c
3000395c:	e1c42002 	bic	r2, r4, r2
30003960:	e3a04000 	mov	r4, #0
30003964:	e1520004 	cmp	r2, r4
30003968:	e1cc42ba 	strh	r4, [ip, #42]	; 0x2a
3000396c:	e58c401c 	str	r4, [ip, #28]
30003970:	e58c1020 	str	r1, [ip, #32]
30003974:	e5cc202c 	strb	r2, [ip, #44]	; 0x2c
30003978:	1a000007 	bne	3000399c <OS_EventTaskRdy+0x98>
3000397c:	e59f1028 	ldr	r1, [pc, #40]	; 300039ac <OS_EventTaskRdy+0xa8>
30003980:	e59f2028 	ldr	r2, [pc, #40]	; 300039b0 <OS_EventTaskRdy+0xac>
30003984:	e5d14000 	ldrb	r4, [r1]
30003988:	e7d2c003 	ldrb	ip, [r2, r3]
3000398c:	e18aa004 	orr	sl, sl, r4
30003990:	e187700c 	orr	r7, r7, ip
30003994:	e5c1a000 	strb	sl, [r1]
30003998:	e7c27003 	strb	r7, [r2, r3]
3000399c:	e8bd05f0 	pop	{r4, r5, r6, r7, r8, sl}
300039a0:	e12fff1e 	bx	lr
300039a4:	30005588 	andcc	r5, r0, r8, lsl #11
300039a8:	30006414 	andcc	r6, r0, r4, lsl r4
300039ac:	3000596c 	andcc	r5, r0, ip, ror #18
300039b0:	30005970 	andcc	r5, r0, r0, ror r9

300039b4 <OS_EventTaskWait>:
300039b4:	e92d0030 	push	{r4, r5}
300039b8:	e59f305c 	ldr	r3, [pc, #92]	; 30003a1c <OS_EventTaskWait+0x68>
300039bc:	e5933000 	ldr	r3, [r3]
300039c0:	e59fc058 	ldr	ip, [pc, #88]	; 30003a20 <OS_EventTaskWait+0x6c>
300039c4:	e583001c 	str	r0, [r3, #28]
300039c8:	e5d3202f 	ldrb	r2, [r3, #47]	; 0x2f
300039cc:	e5d31030 	ldrb	r1, [r3, #48]	; 0x30
300039d0:	e7dc4002 	ldrb	r4, [ip, r2]
300039d4:	e1c44001 	bic	r4, r4, r1
300039d8:	e3540000 	cmp	r4, #0
300039dc:	e7cc4002 	strb	r4, [ip, r2]
300039e0:	059fc03c 	ldreq	ip, [pc, #60]	; 30003a24 <OS_EventTaskWait+0x70>
300039e4:	05d35031 	ldrbeq	r5, [r3, #49]	; 0x31
300039e8:	05dc4000 	ldrbeq	r4, [ip]
300039ec:	01c44005 	biceq	r4, r4, r5
300039f0:	05cc4000 	strbeq	r4, [ip]
300039f4:	e0802002 	add	r2, r0, r2
300039f8:	e5d2c008 	ldrb	ip, [r2, #8]
300039fc:	e181c00c 	orr	ip, r1, ip
30003a00:	e5c2c008 	strb	ip, [r2, #8]
30003a04:	e5d02001 	ldrb	r2, [r0, #1]
30003a08:	e5d31031 	ldrb	r1, [r3, #49]	; 0x31
30003a0c:	e1813002 	orr	r3, r1, r2
30003a10:	e5c03001 	strb	r3, [r0, #1]
30003a14:	e8bd0030 	pop	{r4, r5}
30003a18:	e12fff1e 	bx	lr
30003a1c:	30005980 	andcc	r5, r0, r0, lsl #19
30003a20:	30005970 	andcc	r5, r0, r0, ror r9
30003a24:	3000596c 	andcc	r5, r0, ip, ror #18

30003a28 <OS_EventTO>:
30003a28:	e59f303c 	ldr	r3, [pc, #60]	; 30003a6c <OS_EventTO+0x44>
30003a2c:	e5933000 	ldr	r3, [r3]
30003a30:	e5d3202f 	ldrb	r2, [r3, #47]	; 0x2f
30003a34:	e0802002 	add	r2, r0, r2
30003a38:	e5d21008 	ldrb	r1, [r2, #8]
30003a3c:	e5d3c030 	ldrb	ip, [r3, #48]	; 0x30
30003a40:	e1c1100c 	bic	r1, r1, ip
30003a44:	e5c21008 	strb	r1, [r2, #8]
30003a48:	e3510000 	cmp	r1, #0
30003a4c:	05d02001 	ldrbeq	r2, [r0, #1]
30003a50:	05d31031 	ldrbeq	r1, [r3, #49]	; 0x31
30003a54:	01c22001 	biceq	r2, r2, r1
30003a58:	05c02001 	strbeq	r2, [r0, #1]
30003a5c:	e3a02000 	mov	r2, #0
30003a60:	e5c3202c 	strb	r2, [r3, #44]	; 0x2c
30003a64:	e583201c 	str	r2, [r3, #28]
30003a68:	e12fff1e 	bx	lr
30003a6c:	30005980 	andcc	r5, r0, r0, lsl #19

30003a70 <OS_EventWaitListInit>:
30003a70:	e3a03000 	mov	r3, #0
30003a74:	e5c03001 	strb	r3, [r0, #1]
30003a78:	e5c03008 	strb	r3, [r0, #8]
30003a7c:	e5c03009 	strb	r3, [r0, #9]
30003a80:	e12fff1e 	bx	lr

30003a84 <OS_Sched>:
30003a84:	e52d0004 	push	{r0}		; (str r0, [sp, #-4]!)
30003a88:	e10f0000 	mrs	r0, CPSR
30003a8c:	e38000c0 	orr	r0, r0, #192	; 0xc0
30003a90:	e129f000 	msr	CPSR_fc, r0
30003a94:	e49d0004 	pop	{r0}		; (ldr r0, [sp], #4)
30003a98:	e59f0090 	ldr	r0, [pc, #144]	; 30003b30 <OS_Sched+0xac>
30003a9c:	e5d03000 	ldrb	r3, [r0]
30003aa0:	e3530000 	cmp	r3, #0
30003aa4:	1a00001b 	bne	30003b18 <OS_Sched+0x94>
30003aa8:	e59f2084 	ldr	r2, [pc, #132]	; 30003b34 <OS_Sched+0xb0>
30003aac:	e5d21000 	ldrb	r1, [r2]
30003ab0:	e3510000 	cmp	r1, #0
30003ab4:	1a000017 	bne	30003b18 <OS_Sched+0x94>
30003ab8:	e59f1078 	ldr	r1, [pc, #120]	; 30003b38 <OS_Sched+0xb4>
30003abc:	e59f2078 	ldr	r2, [pc, #120]	; 30003b3c <OS_Sched+0xb8>
30003ac0:	e5d1c000 	ldrb	ip, [r1]
30003ac4:	e59f3074 	ldr	r3, [pc, #116]	; 30003b40 <OS_Sched+0xbc>
30003ac8:	e7d2c00c 	ldrb	ip, [r2, ip]
30003acc:	e7d3000c 	ldrb	r0, [r3, ip]
30003ad0:	e7d21000 	ldrb	r1, [r2, r0]
30003ad4:	e59f2068 	ldr	r2, [pc, #104]	; 30003b44 <OS_Sched+0xc0>
30003ad8:	e081318c 	add	r3, r1, ip, lsl #3
30003adc:	e5d20000 	ldrb	r0, [r2]
30003ae0:	e20330ff 	and	r3, r3, #255	; 0xff
30003ae4:	e59fc05c 	ldr	ip, [pc, #92]	; 30003b48 <OS_Sched+0xc4>
30003ae8:	e1500003 	cmp	r0, r3
30003aec:	e5cc3000 	strb	r3, [ip]
30003af0:	0a000008 	beq	30003b18 <OS_Sched+0x94>
30003af4:	e59f2050 	ldr	r2, [pc, #80]	; 30003b4c <OS_Sched+0xc8>
30003af8:	e59f0050 	ldr	r0, [pc, #80]	; 30003b50 <OS_Sched+0xcc>
30003afc:	e5921000 	ldr	r1, [r2]
30003b00:	e7900103 	ldr	r0, [r0, r3, lsl #2]
30003b04:	e59fc048 	ldr	ip, [pc, #72]	; 30003b54 <OS_Sched+0xd0>
30003b08:	e2813001 	add	r3, r1, #1
30003b0c:	e58c0000 	str	r0, [ip]
30003b10:	e5823000 	str	r3, [r2]
30003b14:	ef000080 	svc	0x00000080
30003b18:	e52d0004 	push	{r0}		; (str r0, [sp, #-4]!)
30003b1c:	e10f0000 	mrs	r0, CPSR
30003b20:	e3c000c0 	bic	r0, r0, #192	; 0xc0
30003b24:	e129f000 	msr	CPSR_fc, r0
30003b28:	e49d0004 	pop	{r0}		; (ldr r0, [sp], #4)
30003b2c:	e12fff1e 	bx	lr
30003b30:	3000597d 	andcc	r5, r0, sp, ror r9
30003b34:	30005830 	andcc	r5, r0, r0, lsr r8
30003b38:	3000596c 	andcc	r5, r0, ip, ror #18
30003b3c:	30005588 	andcc	r5, r0, r8, lsl #11
30003b40:	30005970 	andcc	r5, r0, r0, ror r9
30003b44:	30005878 	andcc	r5, r0, r8, ror r8
30003b48:	30005838 	andcc	r5, r0, r8, lsr r8
30003b4c:	300058e4 	andcc	r5, r0, r4, ror #17
30003b50:	30006414 	andcc	r6, r0, r4, lsl r4
30003b54:	30005964 	andcc	r5, r0, r4, ror #18

30003b58 <OSSchedUnlock>:
30003b58:	e59f0098 	ldr	r0, [pc, #152]	; 30003bf8 <OSSchedUnlock+0xa0>
30003b5c:	e5d03000 	ldrb	r3, [r0]
30003b60:	e3530001 	cmp	r3, #1
30003b64:	112fff1e 	bxne	lr
30003b68:	e52d0004 	push	{r0}		; (str r0, [sp, #-4]!)
30003b6c:	e10f0000 	mrs	r0, CPSR
30003b70:	e38000c0 	orr	r0, r0, #192	; 0xc0
30003b74:	e129f000 	msr	CPSR_fc, r0
30003b78:	e49d0004 	pop	{r0}		; (ldr r0, [sp], #4)
30003b7c:	e59f3078 	ldr	r3, [pc, #120]	; 30003bfc <OSSchedUnlock+0xa4>
30003b80:	e5d32000 	ldrb	r2, [r3]
30003b84:	e3520000 	cmp	r2, #0
30003b88:	0a00000e 	beq	30003bc8 <OSSchedUnlock+0x70>
30003b8c:	e2421001 	sub	r1, r2, #1
30003b90:	e20120ff 	and	r2, r1, #255	; 0xff
30003b94:	e3520000 	cmp	r2, #0
30003b98:	e5c32000 	strb	r2, [r3]
30003b9c:	1a000003 	bne	30003bb0 <OSSchedUnlock+0x58>
30003ba0:	e59f3058 	ldr	r3, [pc, #88]	; 30003c00 <OSSchedUnlock+0xa8>
30003ba4:	e5d3c000 	ldrb	ip, [r3]
30003ba8:	e35c0000 	cmp	ip, #0
30003bac:	0a00000b 	beq	30003be0 <OSSchedUnlock+0x88>
30003bb0:	e52d0004 	push	{r0}		; (str r0, [sp, #-4]!)
30003bb4:	e10f0000 	mrs	r0, CPSR
30003bb8:	e3c000c0 	bic	r0, r0, #192	; 0xc0
30003bbc:	e129f000 	msr	CPSR_fc, r0
30003bc0:	e49d0004 	pop	{r0}		; (ldr r0, [sp], #4)
30003bc4:	e12fff1e 	bx	lr
30003bc8:	e52d0004 	push	{r0}		; (str r0, [sp, #-4]!)
30003bcc:	e10f0000 	mrs	r0, CPSR
30003bd0:	e3c000c0 	bic	r0, r0, #192	; 0xc0
30003bd4:	e129f000 	msr	CPSR_fc, r0
30003bd8:	e49d0004 	pop	{r0}		; (ldr r0, [sp], #4)
30003bdc:	e12fff1e 	bx	lr
30003be0:	e52d0004 	push	{r0}		; (str r0, [sp, #-4]!)
30003be4:	e10f0000 	mrs	r0, CPSR
30003be8:	e3c000c0 	bic	r0, r0, #192	; 0xc0
30003bec:	e129f000 	msr	CPSR_fc, r0
30003bf0:	e49d0004 	pop	{r0}		; (ldr r0, [sp], #4)
30003bf4:	eaffffa2 	b	30003a84 <OS_Sched>
30003bf8:	30005831 	andcc	r5, r0, r1, lsr r8
30003bfc:	30005830 	andcc	r5, r0, r0, lsr r8
30003c00:	3000597d 	andcc	r5, r0, sp, ror r9

30003c04 <OS_TCBInit>:
30003c04:	e92d41f0 	push	{r4, r5, r6, r7, r8, lr}
30003c08:	e1a04000 	mov	r4, r0
30003c0c:	e1ddc2b0 	ldrh	ip, [sp, #32]
30003c10:	e52d0004 	push	{r0}		; (str r0, [sp, #-4]!)
30003c14:	e10f0000 	mrs	r0, CPSR
30003c18:	e38000c0 	orr	r0, r0, #192	; 0xc0
30003c1c:	e129f000 	msr	CPSR_fc, r0
30003c20:	e49d0004 	pop	{r0}		; (ldr r0, [sp], #4)
30003c24:	e59f0144 	ldr	r0, [pc, #324]	; 30003d70 <OS_TCBInit+0x16c>
30003c28:	e5905000 	ldr	r5, [r0]
30003c2c:	e3550000 	cmp	r5, #0
30003c30:	0a000047 	beq	30003d54 <OS_TCBInit+0x150>
30003c34:	e5956014 	ldr	r6, [r5, #20]
30003c38:	e5806000 	str	r6, [r0]
30003c3c:	e52d0004 	push	{r0}		; (str r0, [sp, #-4]!)
30003c40:	e10f0000 	mrs	r0, CPSR
30003c44:	e3c000c0 	bic	r0, r0, #192	; 0xc0
30003c48:	e129f000 	msr	CPSR_fc, r0
30003c4c:	e49d0004 	pop	{r0}		; (ldr r0, [sp], #4)
30003c50:	e59f811c 	ldr	r8, [pc, #284]	; 30003d74 <OS_TCBInit+0x170>
30003c54:	e204e007 	and	lr, r4, #7
30003c58:	e1a061a4 	lsr	r6, r4, #3
30003c5c:	e088000e 	add	r0, r8, lr
30003c60:	e0887006 	add	r7, r8, r6
30003c64:	e5d7810c 	ldrb	r8, [r7, #268]	; 0x10c
30003c68:	e5d0710c 	ldrb	r7, [r0, #268]	; 0x10c
30003c6c:	e3a00000 	mov	r0, #0
30003c70:	e5c5002c 	strb	r0, [r5, #44]	; 0x2c
30003c74:	e5c5402d 	strb	r4, [r5, #45]	; 0x2d
30003c78:	e5851000 	str	r1, [r5]
30003c7c:	e59d101c 	ldr	r1, [sp, #28]
30003c80:	e5851004 	str	r1, [r5, #4]
30003c84:	e59d1018 	ldr	r1, [sp, #24]
30003c88:	e1c502ba 	strh	r0, [r5, #42]	; 0x2a
30003c8c:	e585100c 	str	r1, [r5, #12]
30003c90:	e5852008 	str	r2, [r5, #8]
30003c94:	e1c5c1b0 	strh	ip, [r5, #16]
30003c98:	e1c531b2 	strh	r3, [r5, #18]
30003c9c:	e5c50032 	strb	r0, [r5, #50]	; 0x32
30003ca0:	e5c5e02e 	strb	lr, [r5, #46]	; 0x2e
30003ca4:	e585001c 	str	r0, [r5, #28]
30003ca8:	e5850024 	str	r0, [r5, #36]	; 0x24
30003cac:	e5850020 	str	r0, [r5, #32]
30003cb0:	e5c5602f 	strb	r6, [r5, #47]	; 0x2f
30003cb4:	e1a00005 	mov	r0, r5
30003cb8:	e5c58031 	strb	r8, [r5, #49]	; 0x31
30003cbc:	e5c57030 	strb	r7, [r5, #48]	; 0x30
30003cc0:	eb000088 	bl	30003ee8 <OSTCBInitHook>
30003cc4:	e1a00005 	mov	r0, r5
30003cc8:	eb00004b 	bl	30003dfc <OSTaskCreateHook>
30003ccc:	e52d0004 	push	{r0}		; (str r0, [sp, #-4]!)
30003cd0:	e10f0000 	mrs	r0, CPSR
30003cd4:	e38000c0 	orr	r0, r0, #192	; 0xc0
30003cd8:	e129f000 	msr	CPSR_fc, r0
30003cdc:	e49d0004 	pop	{r0}		; (ldr r0, [sp], #4)
30003ce0:	e59f1090 	ldr	r1, [pc, #144]	; 30003d78 <OS_TCBInit+0x174>
30003ce4:	e5913000 	ldr	r3, [r1]
30003ce8:	e59fc08c 	ldr	ip, [pc, #140]	; 30003d7c <OS_TCBInit+0x178>
30003cec:	e3530000 	cmp	r3, #0
30003cf0:	e3a02000 	mov	r2, #0
30003cf4:	e78c5104 	str	r5, [ip, r4, lsl #2]
30003cf8:	e5852018 	str	r2, [r5, #24]
30003cfc:	e5853014 	str	r3, [r5, #20]
30003d00:	15835018 	strne	r5, [r3, #24]
30003d04:	e59f3074 	ldr	r3, [pc, #116]	; 30003d80 <OS_TCBInit+0x17c>
30003d08:	e5d5c031 	ldrb	ip, [r5, #49]	; 0x31
30003d0c:	e5d30000 	ldrb	r0, [r3]
30003d10:	e180200c 	orr	r2, r0, ip
30003d14:	e5c32000 	strb	r2, [r3]
30003d18:	e59f2064 	ldr	r2, [pc, #100]	; 30003d84 <OS_TCBInit+0x180>
30003d1c:	e5d5302f 	ldrb	r3, [r5, #47]	; 0x2f
30003d20:	e5d50030 	ldrb	r0, [r5, #48]	; 0x30
30003d24:	e7d2c003 	ldrb	ip, [r2, r3]
30003d28:	e18c0000 	orr	r0, ip, r0
30003d2c:	e5815000 	str	r5, [r1]
30003d30:	e7c20003 	strb	r0, [r2, r3]
30003d34:	e52d0004 	push	{r0}		; (str r0, [sp, #-4]!)
30003d38:	e10f0000 	mrs	r0, CPSR
30003d3c:	e3c000c0 	bic	r0, r0, #192	; 0xc0
30003d40:	e129f000 	msr	CPSR_fc, r0
30003d44:	e49d0004 	pop	{r0}		; (ldr r0, [sp], #4)
30003d48:	e3a00000 	mov	r0, #0
30003d4c:	e8bd41f0 	pop	{r4, r5, r6, r7, r8, lr}
30003d50:	e12fff1e 	bx	lr
30003d54:	e52d0004 	push	{r0}		; (str r0, [sp, #-4]!)
30003d58:	e10f0000 	mrs	r0, CPSR
30003d5c:	e3c000c0 	bic	r0, r0, #192	; 0xc0
30003d60:	e129f000 	msr	CPSR_fc, r0
30003d64:	e49d0004 	pop	{r0}		; (ldr r0, [sp], #4)
30003d68:	e3a00046 	mov	r0, #70	; 0x46
30003d6c:	eafffff6 	b	30003d4c <OS_TCBInit+0x148>
30003d70:	300058e8 	andcc	r5, r0, r8, ror #17
30003d74:	30005588 	andcc	r5, r0, r8, lsl #11
30003d78:	3000587c 	andcc	r5, r0, ip, ror r8
30003d7c:	30006414 	andcc	r6, r0, r4, lsl r4
30003d80:	3000596c 	andcc	r5, r0, ip, ror #18
30003d84:	30005970 	andcc	r5, r0, r0, ror r9

30003d88 <main>:
30003d88:	e92d4008 	push	{r3, lr}
30003d8c:	e59f0048 	ldr	r0, [pc, #72]	; 30003ddc <main+0x54>
30003d90:	ebfff35d 	bl	30000b0c <putc_string>
30003d94:	e59f0044 	ldr	r0, [pc, #68]	; 30003de0 <main+0x58>
30003d98:	ebfff35b 	bl	30000b0c <putc_string>
30003d9c:	e59f0038 	ldr	r0, [pc, #56]	; 30003ddc <main+0x54>
30003da0:	ebfff359 	bl	30000b0c <putc_string>
30003da4:	e59f0038 	ldr	r0, [pc, #56]	; 30003de4 <main+0x5c>
30003da8:	ebfff357 	bl	30000b0c <putc_string>
30003dac:	ebfffd66 	bl	3000334c <OSInit>
30003db0:	e59f0024 	ldr	r0, [pc, #36]	; 30003ddc <main+0x54>
30003db4:	ebfff354 	bl	30000b0c <putc_string>
30003db8:	e59f0028 	ldr	r0, [pc, #40]	; 30003de8 <main+0x60>
30003dbc:	ebfff352 	bl	30000b0c <putc_string>
30003dc0:	e3a01000 	mov	r1, #0
30003dc4:	e59f2020 	ldr	r2, [pc, #32]	; 30003dec <main+0x64>
30003dc8:	e1a03001 	mov	r3, r1
30003dcc:	e59f001c 	ldr	r0, [pc, #28]	; 30003df0 <main+0x68>
30003dd0:	ebfff967 	bl	30002374 <OSTaskCreate>
30003dd4:	ebfffe41 	bl	300036e0 <OSStart>
30003dd8:	eafffffe 	b	30003dd8 <main+0x50>
30003ddc:	300056b8 			; <UNDEFINED> instruction: 0x300056b8
30003de0:	300057d8 	ldrdcc	r5, [r0], -r8
30003de4:	300057f0 	strdcc	r5, [r0], -r0
30003de8:	30005800 	andcc	r5, r0, r0, lsl #16
30003dec:	300065d4 	ldrdcc	r6, [r0], -r4
30003df0:	30001864 	andcc	r1, r0, r4, ror #16

30003df4 <OSInitHookBegin>:
30003df4:	e12fff1e 	bx	lr

30003df8 <OSInitHookEnd>:
30003df8:	e12fff1e 	bx	lr

30003dfc <OSTaskCreateHook>:
30003dfc:	e12fff1e 	bx	lr

30003e00 <OSTaskDelHook>:
30003e00:	e12fff1e 	bx	lr

30003e04 <OSTaskIdleHook>:
30003e04:	e92d4008 	push	{r3, lr}
30003e08:	e59f0008 	ldr	r0, [pc, #8]	; 30003e18 <OSTaskIdleHook+0x14>
30003e0c:	ebfff33e 	bl	30000b0c <putc_string>
30003e10:	e8bd4008 	pop	{r3, lr}
30003e14:	e12fff1e 	bx	lr
30003e18:	30005810 	andcc	r5, r0, r0, lsl r8

30003e1c <OSTaskStatHook>:
30003e1c:	e12fff1e 	bx	lr

30003e20 <OSTaskStkInit>:
30003e20:	e92d0ff0 	push	{r4, r5, r6, r7, r8, r9, sl, fp}
30003e24:	e1a0c002 	mov	ip, r2
30003e28:	e40c0004 	str	r0, [ip], #-4
30003e2c:	e24dd020 	sub	sp, sp, #32
30003e30:	e24ca014 	sub	sl, ip, #20
30003e34:	e58da004 	str	sl, [sp, #4]
30003e38:	e24c4024 	sub	r4, ip, #36	; 0x24
30003e3c:	e24ca018 	sub	sl, ip, #24
30003e40:	e58d4008 	str	r4, [sp, #8]
30003e44:	e24a4014 	sub	r4, sl, #20
30003e48:	e58d4010 	str	r4, [sp, #16]
30003e4c:	e24c3028 	sub	r3, ip, #40	; 0x28
30003e50:	e2444008 	sub	r4, r4, #8
30003e54:	e58d300c 	str	r3, [sp, #12]
30003e58:	e58d4018 	str	r4, [sp, #24]
30003e5c:	e2433008 	sub	r3, r3, #8
30003e60:	e2444004 	sub	r4, r4, #4
30003e64:	e58d401c 	str	r4, [sp, #28]
30003e68:	e58d3014 	str	r3, [sp, #20]
30003e6c:	e3a03000 	mov	r3, #0
30003e70:	e5020004 	str	r0, [r2, #-4]
30003e74:	e59d001c 	ldr	r0, [sp, #28]
30003e78:	e59d2008 	ldr	r2, [sp, #8]
30003e7c:	e50c3004 	str	r3, [ip, #-4]
30003e80:	e50c3008 	str	r3, [ip, #-8]
30003e84:	e50c300c 	str	r3, [ip, #-12]
30003e88:	e50c3010 	str	r3, [ip, #-16]
30003e8c:	e50c3014 	str	r3, [ip, #-20]	; 0xffffffec
30003e90:	e59dc004 	ldr	ip, [sp, #4]
30003e94:	e50c3004 	str	r3, [ip, #-4]
30003e98:	e50a3004 	str	r3, [sl, #-4]
30003e9c:	e50a3008 	str	r3, [sl, #-8]
30003ea0:	e50a300c 	str	r3, [sl, #-12]
30003ea4:	e59dc00c 	ldr	ip, [sp, #12]
30003ea8:	e5023004 	str	r3, [r2, #-4]
30003eac:	e59d2010 	ldr	r2, [sp, #16]
30003eb0:	e50c3004 	str	r3, [ip, #-4]
30003eb4:	e5023004 	str	r3, [r2, #-4]
30003eb8:	e59dc014 	ldr	ip, [sp, #20]
30003ebc:	e28d2018 	add	r2, sp, #24
30003ec0:	e892000c 	ldm	r2, {r2, r3}
30003ec4:	e3a0401f 	mov	r4, #31
30003ec8:	e50c1004 	str	r1, [ip, #-4]
30003ecc:	e2400004 	sub	r0, r0, #4
30003ed0:	e5024004 	str	r4, [r2, #-4]
30003ed4:	e5034004 	str	r4, [r3, #-4]
30003ed8:	e28dd020 	add	sp, sp, #32
30003edc:	e8bd0ff0 	pop	{r4, r5, r6, r7, r8, r9, sl, fp}
30003ee0:	e12fff1e 	bx	lr

30003ee4 <OSTaskSwHook>:
30003ee4:	e12fff1e 	bx	lr

30003ee8 <OSTCBInitHook>:
30003ee8:	e12fff1e 	bx	lr

30003eec <OSTimeTickHook>:
30003eec:	e12fff1e 	bx	lr

30003ef0 <OSTimeDly>:
30003ef0:	e3500000 	cmp	r0, #0
30003ef4:	e92d4008 	push	{r3, lr}
30003ef8:	0a000019 	beq	30003f64 <OSTimeDly+0x74>
30003efc:	e52d0004 	push	{r0}		; (str r0, [sp, #-4]!)
30003f00:	e10f0000 	mrs	r0, CPSR
30003f04:	e38000c0 	orr	r0, r0, #192	; 0xc0
30003f08:	e129f000 	msr	CPSR_fc, r0
30003f0c:	e49d0004 	pop	{r0}		; (ldr r0, [sp], #4)
30003f10:	e59f3054 	ldr	r3, [pc, #84]	; 30003f6c <OSTimeDly+0x7c>
30003f14:	e5933000 	ldr	r3, [r3]
30003f18:	e59f1050 	ldr	r1, [pc, #80]	; 30003f70 <OSTimeDly+0x80>
30003f1c:	e5d3202f 	ldrb	r2, [r3, #47]	; 0x2f
30003f20:	e5d3e030 	ldrb	lr, [r3, #48]	; 0x30
30003f24:	e7d1c002 	ldrb	ip, [r1, r2]
30003f28:	e1ccc00e 	bic	ip, ip, lr
30003f2c:	e35c0000 	cmp	ip, #0
30003f30:	e7c1c002 	strb	ip, [r1, r2]
30003f34:	059f2038 	ldreq	r2, [pc, #56]	; 30003f74 <OSTimeDly+0x84>
30003f38:	05d3c031 	ldrbeq	ip, [r3, #49]	; 0x31
30003f3c:	05d21000 	ldrbeq	r1, [r2]
30003f40:	01c1100c 	biceq	r1, r1, ip
30003f44:	05c21000 	strbeq	r1, [r2]
30003f48:	e1c302ba 	strh	r0, [r3, #42]	; 0x2a
30003f4c:	e52d0004 	push	{r0}		; (str r0, [sp, #-4]!)
30003f50:	e10f0000 	mrs	r0, CPSR
30003f54:	e3c000c0 	bic	r0, r0, #192	; 0xc0
30003f58:	e129f000 	msr	CPSR_fc, r0
30003f5c:	e49d0004 	pop	{r0}		; (ldr r0, [sp], #4)
30003f60:	ebfffec7 	bl	30003a84 <OS_Sched>
30003f64:	e8bd4008 	pop	{r3, lr}
30003f68:	e12fff1e 	bx	lr
30003f6c:	30005980 	andcc	r5, r0, r0, lsl #19
30003f70:	30005970 	andcc	r5, r0, r0, ror r9
30003f74:	3000596c 	andcc	r5, r0, ip, ror #18

30003f78 <OSTimeDlyHMSM>:
30003f78:	e181c000 	orr	ip, r1, r0
30003f7c:	e192c00c 	orrs	ip, r2, ip
30003f80:	03a0c000 	moveq	ip, #0
30003f84:	13a0c001 	movne	ip, #1
30003f88:	e3530000 	cmp	r3, #0
30003f8c:	138cc001 	orrne	ip, ip, #1
30003f90:	e35c0000 	cmp	ip, #0
30003f94:	e92d4038 	push	{r3, r4, r5, lr}
30003f98:	03a00054 	moveq	r0, #84	; 0x54
30003f9c:	0a000008 	beq	30003fc4 <OSTimeDlyHMSM+0x4c>
30003fa0:	e351003b 	cmp	r1, #59	; 0x3b
30003fa4:	83a00051 	movhi	r0, #81	; 0x51
30003fa8:	8a000005 	bhi	30003fc4 <OSTimeDlyHMSM+0x4c>
30003fac:	e352003b 	cmp	r2, #59	; 0x3b
30003fb0:	83a00052 	movhi	r0, #82	; 0x52
30003fb4:	8a000002 	bhi	30003fc4 <OSTimeDlyHMSM+0x4c>
30003fb8:	e3530ffa 	cmp	r3, #1000	; 0x3e8
30003fbc:	23a00053 	movcs	r0, #83	; 0x53
30003fc0:	3a000001 	bcc	30003fcc <OSTimeDlyHMSM+0x54>
30003fc4:	e8bd4038 	pop	{r3, r4, r5, lr}
30003fc8:	e12fff1e 	bx	lr
30003fcc:	e0833103 	add	r3, r3, r3, lsl #2
30003fd0:	e0834103 	add	r4, r3, r3, lsl #2
30003fd4:	e1a0e184 	lsl	lr, r4, #3
30003fd8:	e59fc0b4 	ldr	ip, [pc, #180]	; 30004094 <OSTimeDlyHMSM+0x11c>
30003fdc:	e28eee19 	add	lr, lr, #400	; 0x190
30003fe0:	e08e3e9c 	umull	r3, lr, ip, lr
30003fe4:	e0611201 	rsb	r1, r1, r1, lsl #4
30003fe8:	e0603200 	rsb	r3, r0, r0, lsl #4
30003fec:	e0824101 	add	r4, r2, r1, lsl #2
30003ff0:	e0630203 	rsb	r0, r3, r3, lsl #4
30003ff4:	e084c200 	add	ip, r4, r0, lsl #4
30003ff8:	e08c310c 	add	r3, ip, ip, lsl #2
30003ffc:	e0831103 	add	r1, r3, r3, lsl #2
30004000:	e1a02181 	lsl	r2, r1, #3
30004004:	e082432e 	add	r4, r2, lr, lsr #6
30004008:	e1a00804 	lsl	r0, r4, #16
3000400c:	e1a00820 	lsr	r0, r0, #16
30004010:	e1a04824 	lsr	r4, r4, #16
30004014:	ebffffb5 	bl	30003ef0 <OSTimeDly>
30004018:	e3540000 	cmp	r4, #0
3000401c:	0a00001a 	beq	3000408c <OSTimeDlyHMSM+0x114>
30004020:	e3a00902 	mov	r0, #32768	; 0x8000
30004024:	ebffffb1 	bl	30003ef0 <OSTimeDly>
30004028:	e2445001 	sub	r5, r4, #1
3000402c:	e3a00902 	mov	r0, #32768	; 0x8000
30004030:	ebffffae 	bl	30003ef0 <OSTimeDly>
30004034:	e1a02805 	lsl	r2, r5, #16
30004038:	e1b04822 	lsrs	r4, r2, #16
3000403c:	e2055001 	and	r5, r5, #1
30004040:	0a000011 	beq	3000408c <OSTimeDlyHMSM+0x114>
30004044:	e3550000 	cmp	r5, #0
30004048:	13a00902 	movne	r0, #32768	; 0x8000
3000404c:	1a000007 	bne	30004070 <OSTimeDlyHMSM+0xf8>
30004050:	e3a00902 	mov	r0, #32768	; 0x8000
30004054:	ebffffa5 	bl	30003ef0 <OSTimeDly>
30004058:	e3a00902 	mov	r0, #32768	; 0x8000
3000405c:	ebffffa3 	bl	30003ef0 <OSTimeDly>
30004060:	e2440001 	sub	r0, r4, #1
30004064:	e1a01800 	lsl	r1, r0, #16
30004068:	e1a04821 	lsr	r4, r1, #16
3000406c:	e3a00902 	mov	r0, #32768	; 0x8000
30004070:	ebffff9e 	bl	30003ef0 <OSTimeDly>
30004074:	e2444001 	sub	r4, r4, #1
30004078:	e3a00902 	mov	r0, #32768	; 0x8000
3000407c:	ebffff9b 	bl	30003ef0 <OSTimeDly>
30004080:	e1a0c804 	lsl	ip, r4, #16
30004084:	e1b0482c 	lsrs	r4, ip, #16
30004088:	1afffff0 	bne	30004050 <OSTimeDlyHMSM+0xd8>
3000408c:	e1a00004 	mov	r0, r4
30004090:	eaffffcb 	b	30003fc4 <OSTimeDlyHMSM+0x4c>
30004094:	10624dd3 	ldrdne	r4, [r2], #-211	; 0xffffff2d	; <UNPREDICTABLE>

30004098 <OSTimeDlyResume>:
30004098:	e350000b 	cmp	r0, #11
3000409c:	e92d4008 	push	{r3, lr}
300040a0:	83a0002a 	movhi	r0, #42	; 0x2a
300040a4:	8a000011 	bhi	300040f0 <OSTimeDlyResume+0x58>
300040a8:	e52d0004 	push	{r0}		; (str r0, [sp, #-4]!)
300040ac:	e10f0000 	mrs	r0, CPSR
300040b0:	e38000c0 	orr	r0, r0, #192	; 0xc0
300040b4:	e129f000 	msr	CPSR_fc, r0
300040b8:	e49d0004 	pop	{r0}		; (ldr r0, [sp], #4)
300040bc:	e59f30cc 	ldr	r3, [pc, #204]	; 30004190 <OSTimeDlyResume+0xf8>
300040c0:	e7933100 	ldr	r3, [r3, r0, lsl #2]
300040c4:	e3530000 	cmp	r3, #0
300040c8:	0a00000a 	beq	300040f8 <OSTimeDlyResume+0x60>
300040cc:	e1d322ba 	ldrh	r2, [r3, #42]	; 0x2a
300040d0:	e3520000 	cmp	r2, #0
300040d4:	1a00000e 	bne	30004114 <OSTimeDlyResume+0x7c>
300040d8:	e52d0004 	push	{r0}		; (str r0, [sp, #-4]!)
300040dc:	e10f0000 	mrs	r0, CPSR
300040e0:	e3c000c0 	bic	r0, r0, #192	; 0xc0
300040e4:	e129f000 	msr	CPSR_fc, r0
300040e8:	e49d0004 	pop	{r0}		; (ldr r0, [sp], #4)
300040ec:	e3a00050 	mov	r0, #80	; 0x50
300040f0:	e8bd4008 	pop	{r3, lr}
300040f4:	e12fff1e 	bx	lr
300040f8:	e52d0004 	push	{r0}		; (str r0, [sp, #-4]!)
300040fc:	e10f0000 	mrs	r0, CPSR
30004100:	e3c000c0 	bic	r0, r0, #192	; 0xc0
30004104:	e129f000 	msr	CPSR_fc, r0
30004108:	e49d0004 	pop	{r0}		; (ldr r0, [sp], #4)
3000410c:	e3a0000b 	mov	r0, #11
30004110:	eafffff6 	b	300040f0 <OSTimeDlyResume+0x58>
30004114:	e5d3102c 	ldrb	r1, [r3, #44]	; 0x2c
30004118:	e3a00000 	mov	r0, #0
3000411c:	e3110008 	tst	r1, #8
30004120:	e1c302ba 	strh	r0, [r3, #42]	; 0x2a
30004124:	0a000006 	beq	30004144 <OSTimeDlyResume+0xac>
30004128:	e52d0004 	push	{r0}		; (str r0, [sp, #-4]!)
3000412c:	e10f0000 	mrs	r0, CPSR
30004130:	e3c000c0 	bic	r0, r0, #192	; 0xc0
30004134:	e129f000 	msr	CPSR_fc, r0
30004138:	e49d0004 	pop	{r0}		; (ldr r0, [sp], #4)
3000413c:	e3a00000 	mov	r0, #0
30004140:	eaffffea 	b	300040f0 <OSTimeDlyResume+0x58>
30004144:	e59fc048 	ldr	ip, [pc, #72]	; 30004194 <OSTimeDlyResume+0xfc>
30004148:	e5d3e031 	ldrb	lr, [r3, #49]	; 0x31
3000414c:	e5dc2000 	ldrb	r2, [ip]
30004150:	e182100e 	orr	r1, r2, lr
30004154:	e5cc1000 	strb	r1, [ip]
30004158:	e59fc038 	ldr	ip, [pc, #56]	; 30004198 <OSTimeDlyResume+0x100>
3000415c:	e5d3e02f 	ldrb	lr, [r3, #47]	; 0x2f
30004160:	e5d32030 	ldrb	r2, [r3, #48]	; 0x30
30004164:	e7dc000e 	ldrb	r0, [ip, lr]
30004168:	e1803002 	orr	r3, r0, r2
3000416c:	e7cc300e 	strb	r3, [ip, lr]
30004170:	e52d0004 	push	{r0}		; (str r0, [sp, #-4]!)
30004174:	e10f0000 	mrs	r0, CPSR
30004178:	e3c000c0 	bic	r0, r0, #192	; 0xc0
3000417c:	e129f000 	msr	CPSR_fc, r0
30004180:	e49d0004 	pop	{r0}		; (ldr r0, [sp], #4)
30004184:	ebfffe3e 	bl	30003a84 <OS_Sched>
30004188:	e3a00000 	mov	r0, #0
3000418c:	eaffffd7 	b	300040f0 <OSTimeDlyResume+0x58>
30004190:	30006414 	andcc	r6, r0, r4, lsl r4
30004194:	3000596c 	andcc	r5, r0, ip, ror #18
30004198:	30005970 	andcc	r5, r0, r0, ror r9

3000419c <OSTimeGet>:
3000419c:	e52d0004 	push	{r0}		; (str r0, [sp, #-4]!)
300041a0:	e10f0000 	mrs	r0, CPSR
300041a4:	e38000c0 	orr	r0, r0, #192	; 0xc0
300041a8:	e129f000 	msr	CPSR_fc, r0
300041ac:	e49d0004 	pop	{r0}		; (ldr r0, [sp], #4)
300041b0:	e59f3018 	ldr	r3, [pc, #24]	; 300041d0 <OSTimeGet+0x34>
300041b4:	e5930000 	ldr	r0, [r3]
300041b8:	e52d0004 	push	{r0}		; (str r0, [sp, #-4]!)
300041bc:	e10f0000 	mrs	r0, CPSR
300041c0:	e3c000c0 	bic	r0, r0, #192	; 0xc0
300041c4:	e129f000 	msr	CPSR_fc, r0
300041c8:	e49d0004 	pop	{r0}		; (ldr r0, [sp], #4)
300041cc:	e12fff1e 	bx	lr
300041d0:	30005984 	andcc	r5, r0, r4, lsl #19

300041d4 <OSTimeSet>:
300041d4:	e52d0004 	push	{r0}		; (str r0, [sp, #-4]!)
300041d8:	e10f0000 	mrs	r0, CPSR
300041dc:	e38000c0 	orr	r0, r0, #192	; 0xc0
300041e0:	e129f000 	msr	CPSR_fc, r0
300041e4:	e49d0004 	pop	{r0}		; (ldr r0, [sp], #4)
300041e8:	e59f3018 	ldr	r3, [pc, #24]	; 30004208 <OSTimeSet+0x34>
300041ec:	e5830000 	str	r0, [r3]
300041f0:	e52d0004 	push	{r0}		; (str r0, [sp, #-4]!)
300041f4:	e10f0000 	mrs	r0, CPSR
300041f8:	e3c000c0 	bic	r0, r0, #192	; 0xc0
300041fc:	e129f000 	msr	CPSR_fc, r0
30004200:	e49d0004 	pop	{r0}		; (ldr r0, [sp], #4)
30004204:	e12fff1e 	bx	lr
30004208:	30005984 	andcc	r5, r0, r4, lsl #19

3000420c <OSQAccept>:
3000420c:	e3500000 	cmp	r0, #0
30004210:	012fff1e 	bxeq	lr
30004214:	e5d03000 	ldrb	r3, [r0]
30004218:	e3530002 	cmp	r3, #2
3000421c:	0a000001 	beq	30004228 <OSQAccept+0x1c>
30004220:	e3a00000 	mov	r0, #0
30004224:	e12fff1e 	bx	lr
30004228:	e52d0004 	push	{r0}		; (str r0, [sp, #-4]!)
3000422c:	e10f0000 	mrs	r0, CPSR
30004230:	e38000c0 	orr	r0, r0, #192	; 0xc0
30004234:	e129f000 	msr	CPSR_fc, r0
30004238:	e49d0004 	pop	{r0}		; (ldr r0, [sp], #4)
3000423c:	e5903004 	ldr	r3, [r0, #4]
30004240:	e1d321b6 	ldrh	r2, [r3, #22]
30004244:	e3520000 	cmp	r2, #0
30004248:	01a00002 	moveq	r0, r2
3000424c:	0a000008 	beq	30004274 <OSQAccept+0x68>
30004250:	e5931010 	ldr	r1, [r3, #16]
30004254:	e593c008 	ldr	ip, [r3, #8]
30004258:	e4910004 	ldr	r0, [r1], #4
3000425c:	e2422001 	sub	r2, r2, #1
30004260:	e151000c 	cmp	r1, ip
30004264:	e1c321b6 	strh	r2, [r3, #22]
30004268:	05932004 	ldreq	r2, [r3, #4]
3000426c:	e5831010 	str	r1, [r3, #16]
30004270:	05832010 	streq	r2, [r3, #16]
30004274:	e52d0004 	push	{r0}		; (str r0, [sp, #-4]!)
30004278:	e10f0000 	mrs	r0, CPSR
3000427c:	e3c000c0 	bic	r0, r0, #192	; 0xc0
30004280:	e129f000 	msr	CPSR_fc, r0
30004284:	e49d0004 	pop	{r0}		; (ldr r0, [sp], #4)
30004288:	e12fff1e 	bx	lr

3000428c <OSQCreate>:
3000428c:	e92d4010 	push	{r4, lr}
30004290:	e59f3100 	ldr	r3, [pc, #256]	; 30004398 <OSQCreate+0x10c>
30004294:	e5d33000 	ldrb	r3, [r3]
30004298:	e3530000 	cmp	r3, #0
3000429c:	13a04000 	movne	r4, #0
300042a0:	1a00002f 	bne	30004364 <OSQCreate+0xd8>
300042a4:	e52d0004 	push	{r0}		; (str r0, [sp, #-4]!)
300042a8:	e10f0000 	mrs	r0, CPSR
300042ac:	e38000c0 	orr	r0, r0, #192	; 0xc0
300042b0:	e129f000 	msr	CPSR_fc, r0
300042b4:	e49d0004 	pop	{r0}		; (ldr r0, [sp], #4)
300042b8:	e59f20dc 	ldr	r2, [pc, #220]	; 3000439c <OSQCreate+0x110>
300042bc:	e5924000 	ldr	r4, [r2]
300042c0:	e3540000 	cmp	r4, #0
300042c4:	15943004 	ldrne	r3, [r4, #4]
300042c8:	15823000 	strne	r3, [r2]
300042cc:	e52d0004 	push	{r0}		; (str r0, [sp, #-4]!)
300042d0:	e10f0000 	mrs	r0, CPSR
300042d4:	e3c000c0 	bic	r0, r0, #192	; 0xc0
300042d8:	e129f000 	msr	CPSR_fc, r0
300042dc:	e49d0004 	pop	{r0}		; (ldr r0, [sp], #4)
300042e0:	e3540000 	cmp	r4, #0
300042e4:	0a00001e 	beq	30004364 <OSQCreate+0xd8>
300042e8:	e52d0004 	push	{r0}		; (str r0, [sp, #-4]!)
300042ec:	e10f0000 	mrs	r0, CPSR
300042f0:	e38000c0 	orr	r0, r0, #192	; 0xc0
300042f4:	e129f000 	msr	CPSR_fc, r0
300042f8:	e49d0004 	pop	{r0}		; (ldr r0, [sp], #4)
300042fc:	e59fc09c 	ldr	ip, [pc, #156]	; 300043a0 <OSQCreate+0x114>
30004300:	e59c3000 	ldr	r3, [ip]
30004304:	e3530000 	cmp	r3, #0
30004308:	0a000018 	beq	30004370 <OSQCreate+0xe4>
3000430c:	e593e000 	ldr	lr, [r3]
30004310:	e58ce000 	str	lr, [ip]
30004314:	e52d0004 	push	{r0}		; (str r0, [sp, #-4]!)
30004318:	e10f0000 	mrs	r0, CPSR
3000431c:	e3c000c0 	bic	r0, r0, #192	; 0xc0
30004320:	e129f000 	msr	CPSR_fc, r0
30004324:	e49d0004 	pop	{r0}		; (ldr r0, [sp], #4)
30004328:	e3a02000 	mov	r2, #0
3000432c:	e5830004 	str	r0, [r3, #4]
30004330:	e583000c 	str	r0, [r3, #12]
30004334:	e5830010 	str	r0, [r3, #16]
30004338:	e1c311b4 	strh	r1, [r3, #20]
3000433c:	e080c101 	add	ip, r0, r1, lsl #2
30004340:	e3a00000 	mov	r0, #0
30004344:	e3a01002 	mov	r1, #2
30004348:	e1c301b6 	strh	r0, [r3, #22]
3000434c:	e583c008 	str	ip, [r3, #8]
30004350:	e1a00004 	mov	r0, r4
30004354:	e5c41000 	strb	r1, [r4]
30004358:	e1c420b2 	strh	r2, [r4, #2]
3000435c:	e5843004 	str	r3, [r4, #4]
30004360:	ebfffdc2 	bl	30003a70 <OS_EventWaitListInit>
30004364:	e1a00004 	mov	r0, r4
30004368:	e8bd4010 	pop	{r4, lr}
3000436c:	e12fff1e 	bx	lr
30004370:	e5923000 	ldr	r3, [r2]
30004374:	e5824000 	str	r4, [r2]
30004378:	e5843004 	str	r3, [r4, #4]
3000437c:	e52d0004 	push	{r0}		; (str r0, [sp, #-4]!)
30004380:	e10f0000 	mrs	r0, CPSR
30004384:	e3c000c0 	bic	r0, r0, #192	; 0xc0
30004388:	e129f000 	msr	CPSR_fc, r0
3000438c:	e49d0004 	pop	{r0}		; (ldr r0, [sp], #4)
30004390:	e3a04000 	mov	r4, #0
30004394:	eafffff2 	b	30004364 <OSQCreate+0xd8>
30004398:	3000597d 	andcc	r5, r0, sp, ror r9
3000439c:	30005978 	andcc	r5, r0, r8, ror r9
300043a0:	30005968 	andcc	r5, r0, r8, ror #18

300043a4 <OSQDel>:
300043a4:	e92d4070 	push	{r4, r5, r6, lr}
300043a8:	e59f318c 	ldr	r3, [pc, #396]	; 3000453c <OSQDel+0x198>
300043ac:	e5d33000 	ldrb	r3, [r3]
300043b0:	e3530000 	cmp	r3, #0
300043b4:	13e03073 	mvnne	r3, #115	; 0x73
300043b8:	e1a04000 	mov	r4, r0
300043bc:	e1a05002 	mov	r5, r2
300043c0:	15c23000 	strbne	r3, [r2]
300043c4:	13a04000 	movne	r4, #0
300043c8:	1a000008 	bne	300043f0 <OSQDel+0x4c>
300043cc:	e3500000 	cmp	r0, #0
300043d0:	03a03004 	moveq	r3, #4
300043d4:	05c23000 	strbeq	r3, [r2]
300043d8:	0a000004 	beq	300043f0 <OSQDel+0x4c>
300043dc:	e5d0c000 	ldrb	ip, [r0]
300043e0:	e35c0002 	cmp	ip, #2
300043e4:	13a0c001 	movne	ip, #1
300043e8:	15c2c000 	strbne	ip, [r2]
300043ec:	0a000002 	beq	300043fc <OSQDel+0x58>
300043f0:	e1a00004 	mov	r0, r4
300043f4:	e8bd4070 	pop	{r4, r5, r6, lr}
300043f8:	e12fff1e 	bx	lr
300043fc:	e52d0004 	push	{r0}		; (str r0, [sp, #-4]!)
30004400:	e10f0000 	mrs	r0, CPSR
30004404:	e38000c0 	orr	r0, r0, #192	; 0xc0
30004408:	e129f000 	msr	CPSR_fc, r0
3000440c:	e49d0004 	pop	{r0}		; (ldr r0, [sp], #4)
30004410:	e5d06001 	ldrb	r6, [r0, #1]
30004414:	e2566000 	subs	r6, r6, #0
30004418:	13a06001 	movne	r6, #1
3000441c:	e3510000 	cmp	r1, #0
30004420:	1a000009 	bne	3000444c <OSQDel+0xa8>
30004424:	e3560000 	cmp	r6, #0
30004428:	0a000031 	beq	300044f4 <OSQDel+0x150>
3000442c:	e52d0004 	push	{r0}		; (str r0, [sp, #-4]!)
30004430:	e10f0000 	mrs	r0, CPSR
30004434:	e3c000c0 	bic	r0, r0, #192	; 0xc0
30004438:	e129f000 	msr	CPSR_fc, r0
3000443c:	e49d0004 	pop	{r0}		; (ldr r0, [sp], #4)
30004440:	e3a03008 	mov	r3, #8
30004444:	e5c23000 	strb	r3, [r2]
30004448:	eaffffe8 	b	300043f0 <OSQDel+0x4c>
3000444c:	e3510001 	cmp	r1, #1
30004450:	0a000007 	beq	30004474 <OSQDel+0xd0>
30004454:	e52d0004 	push	{r0}		; (str r0, [sp, #-4]!)
30004458:	e10f0000 	mrs	r0, CPSR
3000445c:	e3c000c0 	bic	r0, r0, #192	; 0xc0
30004460:	e129f000 	msr	CPSR_fc, r0
30004464:	e49d0004 	pop	{r0}		; (ldr r0, [sp], #4)
30004468:	e3a0c007 	mov	ip, #7
3000446c:	e5c2c000 	strb	ip, [r2]
30004470:	eaffffde 	b	300043f0 <OSQDel+0x4c>
30004474:	e3560000 	cmp	r6, #0
30004478:	0a000006 	beq	30004498 <OSQDel+0xf4>
3000447c:	e3a02004 	mov	r2, #4
30004480:	e1a00004 	mov	r0, r4
30004484:	e3a01000 	mov	r1, #0
30004488:	ebfffd1d 	bl	30003904 <OS_EventTaskRdy>
3000448c:	e5d42001 	ldrb	r2, [r4, #1]
30004490:	e3520000 	cmp	r2, #0
30004494:	1afffff8 	bne	3000447c <OSQDel+0xd8>
30004498:	e59f20a0 	ldr	r2, [pc, #160]	; 30004540 <OSQDel+0x19c>
3000449c:	e5941004 	ldr	r1, [r4, #4]
300044a0:	e5923000 	ldr	r3, [r2]
300044a4:	e3a00000 	mov	r0, #0
300044a8:	e5813000 	str	r3, [r1]
300044ac:	e59fc090 	ldr	ip, [pc, #144]	; 30004544 <OSQDel+0x1a0>
300044b0:	e5821000 	str	r1, [r2]
300044b4:	e5c40000 	strb	r0, [r4]
300044b8:	e59c1000 	ldr	r1, [ip]
300044bc:	e58c4000 	str	r4, [ip]
300044c0:	e5841004 	str	r1, [r4, #4]
300044c4:	e52d0004 	push	{r0}		; (str r0, [sp, #-4]!)
300044c8:	e10f0000 	mrs	r0, CPSR
300044cc:	e3c000c0 	bic	r0, r0, #192	; 0xc0
300044d0:	e129f000 	msr	CPSR_fc, r0
300044d4:	e49d0004 	pop	{r0}		; (ldr r0, [sp], #4)
300044d8:	e3560001 	cmp	r6, #1
300044dc:	0a000002 	beq	300044ec <OSQDel+0x148>
300044e0:	e3a04000 	mov	r4, #0
300044e4:	e5c54000 	strb	r4, [r5]
300044e8:	eaffffc0 	b	300043f0 <OSQDel+0x4c>
300044ec:	ebfffd64 	bl	30003a84 <OS_Sched>
300044f0:	eafffffa 	b	300044e0 <OSQDel+0x13c>
300044f4:	e59fc044 	ldr	ip, [pc, #68]	; 30004540 <OSQDel+0x19c>
300044f8:	e5901004 	ldr	r1, [r0, #4]
300044fc:	e59c0000 	ldr	r0, [ip]
30004500:	e59f303c 	ldr	r3, [pc, #60]	; 30004544 <OSQDel+0x1a0>
30004504:	e5810000 	str	r0, [r1]
30004508:	e58c1000 	str	r1, [ip]
3000450c:	e5c46000 	strb	r6, [r4]
30004510:	e5932000 	ldr	r2, [r3]
30004514:	e5834000 	str	r4, [r3]
30004518:	e5842004 	str	r2, [r4, #4]
3000451c:	e52d0004 	push	{r0}		; (str r0, [sp, #-4]!)
30004520:	e10f0000 	mrs	r0, CPSR
30004524:	e3c000c0 	bic	r0, r0, #192	; 0xc0
30004528:	e129f000 	msr	CPSR_fc, r0
3000452c:	e49d0004 	pop	{r0}		; (ldr r0, [sp], #4)
30004530:	e3a04000 	mov	r4, #0
30004534:	e5c54000 	strb	r4, [r5]
30004538:	eaffffac 	b	300043f0 <OSQDel+0x4c>
3000453c:	3000597d 	andcc	r5, r0, sp, ror r9
30004540:	30005968 	andcc	r5, r0, r8, ror #18
30004544:	30005978 	andcc	r5, r0, r8, ror r9

30004548 <OSQFlush>:
30004548:	e3500000 	cmp	r0, #0
3000454c:	03a00004 	moveq	r0, #4
30004550:	012fff1e 	bxeq	lr
30004554:	e5d03000 	ldrb	r3, [r0]
30004558:	e3530002 	cmp	r3, #2
3000455c:	0a000001 	beq	30004568 <OSQFlush+0x20>
30004560:	e3a00001 	mov	r0, #1
30004564:	e12fff1e 	bx	lr
30004568:	e52d0004 	push	{r0}		; (str r0, [sp, #-4]!)
3000456c:	e10f0000 	mrs	r0, CPSR
30004570:	e38000c0 	orr	r0, r0, #192	; 0xc0
30004574:	e129f000 	msr	CPSR_fc, r0
30004578:	e49d0004 	pop	{r0}		; (ldr r0, [sp], #4)
3000457c:	e5900004 	ldr	r0, [r0, #4]
30004580:	e5902004 	ldr	r2, [r0, #4]
30004584:	e3a01000 	mov	r1, #0
30004588:	e1c011b6 	strh	r1, [r0, #22]
3000458c:	e580200c 	str	r2, [r0, #12]
30004590:	e5802010 	str	r2, [r0, #16]
30004594:	e52d0004 	push	{r0}		; (str r0, [sp, #-4]!)
30004598:	e10f0000 	mrs	r0, CPSR
3000459c:	e3c000c0 	bic	r0, r0, #192	; 0xc0
300045a0:	e129f000 	msr	CPSR_fc, r0
300045a4:	e49d0004 	pop	{r0}		; (ldr r0, [sp], #4)
300045a8:	e3a00000 	mov	r0, #0
300045ac:	e12fff1e 	bx	lr

300045b0 <OSQPend>:
300045b0:	e92d4010 	push	{r4, lr}
300045b4:	e59f3184 	ldr	r3, [pc, #388]	; 30004740 <OSQPend+0x190>
300045b8:	e5d33000 	ldrb	r3, [r3]
300045bc:	e3530000 	cmp	r3, #0
300045c0:	13a03002 	movne	r3, #2
300045c4:	15c23000 	strbne	r3, [r2]
300045c8:	e24dd008 	sub	sp, sp, #8
300045cc:	e1a04000 	mov	r4, r0
300045d0:	13a03000 	movne	r3, #0
300045d4:	1a000022 	bne	30004664 <OSQPend+0xb4>
300045d8:	e3500000 	cmp	r0, #0
300045dc:	03a03004 	moveq	r3, #4
300045e0:	05c23000 	strbeq	r3, [r2]
300045e4:	01a03000 	moveq	r3, r0
300045e8:	0a00001d 	beq	30004664 <OSQPend+0xb4>
300045ec:	e5d00000 	ldrb	r0, [r0]
300045f0:	e3500002 	cmp	r0, #2
300045f4:	13a01001 	movne	r1, #1
300045f8:	15c21000 	strbne	r1, [r2]
300045fc:	1a000018 	bne	30004664 <OSQPend+0xb4>
30004600:	e52d0004 	push	{r0}		; (str r0, [sp, #-4]!)
30004604:	e10f0000 	mrs	r0, CPSR
30004608:	e38000c0 	orr	r0, r0, #192	; 0xc0
3000460c:	e129f000 	msr	CPSR_fc, r0
30004610:	e49d0004 	pop	{r0}		; (ldr r0, [sp], #4)
30004614:	e5940004 	ldr	r0, [r4, #4]
30004618:	e1d0c1b6 	ldrh	ip, [r0, #22]
3000461c:	e35c0000 	cmp	ip, #0
30004620:	0a000013 	beq	30004674 <OSQPend+0xc4>
30004624:	e5901010 	ldr	r1, [r0, #16]
30004628:	e5904008 	ldr	r4, [r0, #8]
3000462c:	e4913004 	ldr	r3, [r1], #4
30004630:	e1510004 	cmp	r1, r4
30004634:	e5801010 	str	r1, [r0, #16]
30004638:	05901004 	ldreq	r1, [r0, #4]
3000463c:	e24cc001 	sub	ip, ip, #1
30004640:	e1c0c1b6 	strh	ip, [r0, #22]
30004644:	05801010 	streq	r1, [r0, #16]
30004648:	e52d0004 	push	{r0}		; (str r0, [sp, #-4]!)
3000464c:	e10f0000 	mrs	r0, CPSR
30004650:	e3c000c0 	bic	r0, r0, #192	; 0xc0
30004654:	e129f000 	msr	CPSR_fc, r0
30004658:	e49d0004 	pop	{r0}		; (ldr r0, [sp], #4)
3000465c:	e3a01000 	mov	r1, #0
30004660:	e5c21000 	strb	r1, [r2]
30004664:	e1a00003 	mov	r0, r3
30004668:	e28dd008 	add	sp, sp, #8
3000466c:	e8bd4010 	pop	{r4, lr}
30004670:	e12fff1e 	bx	lr
30004674:	e59fc0c8 	ldr	ip, [pc, #200]	; 30004744 <OSQPend+0x194>
30004678:	e59ce000 	ldr	lr, [ip]
3000467c:	e5de002c 	ldrb	r0, [lr, #44]	; 0x2c
30004680:	e3803004 	orr	r3, r0, #4
30004684:	e5ce302c 	strb	r3, [lr, #44]	; 0x2c
30004688:	e1ce12ba 	strh	r1, [lr, #42]	; 0x2a
3000468c:	e1a00004 	mov	r0, r4
30004690:	e58d2000 	str	r2, [sp]
30004694:	ebfffcc6 	bl	300039b4 <OS_EventTaskWait>
30004698:	e52d0004 	push	{r0}		; (str r0, [sp, #-4]!)
3000469c:	e10f0000 	mrs	r0, CPSR
300046a0:	e3c000c0 	bic	r0, r0, #192	; 0xc0
300046a4:	e129f000 	msr	CPSR_fc, r0
300046a8:	e49d0004 	pop	{r0}		; (ldr r0, [sp], #4)
300046ac:	ebfffcf4 	bl	30003a84 <OS_Sched>
300046b0:	e52d0004 	push	{r0}		; (str r0, [sp, #-4]!)
300046b4:	e10f0000 	mrs	r0, CPSR
300046b8:	e38000c0 	orr	r0, r0, #192	; 0xc0
300046bc:	e129f000 	msr	CPSR_fc, r0
300046c0:	e49d0004 	pop	{r0}		; (ldr r0, [sp], #4)
300046c4:	e59f2078 	ldr	r2, [pc, #120]	; 30004744 <OSQPend+0x194>
300046c8:	e5921000 	ldr	r1, [r2]
300046cc:	e5913020 	ldr	r3, [r1, #32]
300046d0:	e3530000 	cmp	r3, #0
300046d4:	e59d2000 	ldr	r2, [sp]
300046d8:	0a00000b 	beq	3000470c <OSQPend+0x15c>
300046dc:	e3a0e000 	mov	lr, #0
300046e0:	e581e020 	str	lr, [r1, #32]
300046e4:	e5c1e02c 	strb	lr, [r1, #44]	; 0x2c
300046e8:	e581e01c 	str	lr, [r1, #28]
300046ec:	e52d0004 	push	{r0}		; (str r0, [sp, #-4]!)
300046f0:	e10f0000 	mrs	r0, CPSR
300046f4:	e3c000c0 	bic	r0, r0, #192	; 0xc0
300046f8:	e129f000 	msr	CPSR_fc, r0
300046fc:	e49d0004 	pop	{r0}		; (ldr r0, [sp], #4)
30004700:	e3a01000 	mov	r1, #0
30004704:	e5c21000 	strb	r1, [r2]
30004708:	eaffffd5 	b	30004664 <OSQPend+0xb4>
3000470c:	e1a00004 	mov	r0, r4
30004710:	e88d000c 	stm	sp, {r2, r3}
30004714:	ebfffcc3 	bl	30003a28 <OS_EventTO>
30004718:	e52d0004 	push	{r0}		; (str r0, [sp, #-4]!)
3000471c:	e10f0000 	mrs	r0, CPSR
30004720:	e3c000c0 	bic	r0, r0, #192	; 0xc0
30004724:	e129f000 	msr	CPSR_fc, r0
30004728:	e49d0004 	pop	{r0}		; (ldr r0, [sp], #4)
3000472c:	e59d2000 	ldr	r2, [sp]
30004730:	e3a0300a 	mov	r3, #10
30004734:	e5c23000 	strb	r3, [r2]
30004738:	e59d3004 	ldr	r3, [sp, #4]
3000473c:	eaffffc8 	b	30004664 <OSQPend+0xb4>
30004740:	3000597d 	andcc	r5, r0, sp, ror r9
30004744:	30005980 	andcc	r5, r0, r0, lsl #19

30004748 <OSQPost>:
30004748:	e3500000 	cmp	r0, #0
3000474c:	e92d4008 	push	{r3, lr}
30004750:	03a00004 	moveq	r0, #4
30004754:	0a000006 	beq	30004774 <OSQPost+0x2c>
30004758:	e3510000 	cmp	r1, #0
3000475c:	03a00003 	moveq	r0, #3
30004760:	0a000003 	beq	30004774 <OSQPost+0x2c>
30004764:	e5d03000 	ldrb	r3, [r0]
30004768:	e3530002 	cmp	r3, #2
3000476c:	13a00001 	movne	r0, #1
30004770:	0a000001 	beq	3000477c <OSQPost+0x34>
30004774:	e8bd4008 	pop	{r3, lr}
30004778:	e12fff1e 	bx	lr
3000477c:	e52d0004 	push	{r0}		; (str r0, [sp, #-4]!)
30004780:	e10f0000 	mrs	r0, CPSR
30004784:	e38000c0 	orr	r0, r0, #192	; 0xc0
30004788:	e129f000 	msr	CPSR_fc, r0
3000478c:	e49d0004 	pop	{r0}		; (ldr r0, [sp], #4)
30004790:	e5d02001 	ldrb	r2, [r0, #1]
30004794:	e3520000 	cmp	r2, #0
30004798:	1a00001b 	bne	3000480c <OSQPost+0xc4>
3000479c:	e5903004 	ldr	r3, [r0, #4]
300047a0:	e1d321b6 	ldrh	r2, [r3, #22]
300047a4:	e1d301b4 	ldrh	r0, [r3, #20]
300047a8:	e1500002 	cmp	r0, r2
300047ac:	8a000006 	bhi	300047cc <OSQPost+0x84>
300047b0:	e52d0004 	push	{r0}		; (str r0, [sp, #-4]!)
300047b4:	e10f0000 	mrs	r0, CPSR
300047b8:	e3c000c0 	bic	r0, r0, #192	; 0xc0
300047bc:	e129f000 	msr	CPSR_fc, r0
300047c0:	e49d0004 	pop	{r0}		; (ldr r0, [sp], #4)
300047c4:	e3a0001e 	mov	r0, #30
300047c8:	eaffffe9 	b	30004774 <OSQPost+0x2c>
300047cc:	e593000c 	ldr	r0, [r3, #12]
300047d0:	e593c008 	ldr	ip, [r3, #8]
300047d4:	e4801004 	str	r1, [r0], #4
300047d8:	e2821001 	add	r1, r2, #1
300047dc:	e150000c 	cmp	r0, ip
300047e0:	e1c311b6 	strh	r1, [r3, #22]
300047e4:	05931004 	ldreq	r1, [r3, #4]
300047e8:	e583000c 	str	r0, [r3, #12]
300047ec:	0583100c 	streq	r1, [r3, #12]
300047f0:	e52d0004 	push	{r0}		; (str r0, [sp, #-4]!)
300047f4:	e10f0000 	mrs	r0, CPSR
300047f8:	e3c000c0 	bic	r0, r0, #192	; 0xc0
300047fc:	e129f000 	msr	CPSR_fc, r0
30004800:	e49d0004 	pop	{r0}		; (ldr r0, [sp], #4)
30004804:	e3a00000 	mov	r0, #0
30004808:	eaffffd9 	b	30004774 <OSQPost+0x2c>
3000480c:	e3a02004 	mov	r2, #4
30004810:	ebfffc3b 	bl	30003904 <OS_EventTaskRdy>
30004814:	e52d0004 	push	{r0}		; (str r0, [sp, #-4]!)
30004818:	e10f0000 	mrs	r0, CPSR
3000481c:	e3c000c0 	bic	r0, r0, #192	; 0xc0
30004820:	e129f000 	msr	CPSR_fc, r0
30004824:	e49d0004 	pop	{r0}		; (ldr r0, [sp], #4)
30004828:	ebfffc95 	bl	30003a84 <OS_Sched>
3000482c:	e3a00000 	mov	r0, #0
30004830:	eaffffcf 	b	30004774 <OSQPost+0x2c>

30004834 <OSQPostFront>:
30004834:	e3500000 	cmp	r0, #0
30004838:	e92d4008 	push	{r3, lr}
3000483c:	03a00004 	moveq	r0, #4
30004840:	0a000006 	beq	30004860 <OSQPostFront+0x2c>
30004844:	e3510000 	cmp	r1, #0
30004848:	03a00003 	moveq	r0, #3
3000484c:	0a000003 	beq	30004860 <OSQPostFront+0x2c>
30004850:	e5d03000 	ldrb	r3, [r0]
30004854:	e3530002 	cmp	r3, #2
30004858:	13a00001 	movne	r0, #1
3000485c:	0a000001 	beq	30004868 <OSQPostFront+0x34>
30004860:	e8bd4008 	pop	{r3, lr}
30004864:	e12fff1e 	bx	lr
30004868:	e52d0004 	push	{r0}		; (str r0, [sp, #-4]!)
3000486c:	e10f0000 	mrs	r0, CPSR
30004870:	e38000c0 	orr	r0, r0, #192	; 0xc0
30004874:	e129f000 	msr	CPSR_fc, r0
30004878:	e49d0004 	pop	{r0}		; (ldr r0, [sp], #4)
3000487c:	e5d02001 	ldrb	r2, [r0, #1]
30004880:	e3520000 	cmp	r2, #0
30004884:	1a00001b 	bne	300048f8 <OSQPostFront+0xc4>
30004888:	e5903004 	ldr	r3, [r0, #4]
3000488c:	e1d321b6 	ldrh	r2, [r3, #22]
30004890:	e1d301b4 	ldrh	r0, [r3, #20]
30004894:	e1500002 	cmp	r0, r2
30004898:	8a000006 	bhi	300048b8 <OSQPostFront+0x84>
3000489c:	e52d0004 	push	{r0}		; (str r0, [sp, #-4]!)
300048a0:	e10f0000 	mrs	r0, CPSR
300048a4:	e3c000c0 	bic	r0, r0, #192	; 0xc0
300048a8:	e129f000 	msr	CPSR_fc, r0
300048ac:	e49d0004 	pop	{r0}		; (ldr r0, [sp], #4)
300048b0:	e3a0001e 	mov	r0, #30
300048b4:	eaffffe9 	b	30004860 <OSQPostFront+0x2c>
300048b8:	e5930010 	ldr	r0, [r3, #16]
300048bc:	e593c004 	ldr	ip, [r3, #4]
300048c0:	e150000c 	cmp	r0, ip
300048c4:	05930008 	ldreq	r0, [r3, #8]
300048c8:	e2822001 	add	r2, r2, #1
300048cc:	e240c004 	sub	ip, r0, #4
300048d0:	e583c010 	str	ip, [r3, #16]
300048d4:	e5001004 	str	r1, [r0, #-4]
300048d8:	e1c321b6 	strh	r2, [r3, #22]
300048dc:	e52d0004 	push	{r0}		; (str r0, [sp, #-4]!)
300048e0:	e10f0000 	mrs	r0, CPSR
300048e4:	e3c000c0 	bic	r0, r0, #192	; 0xc0
300048e8:	e129f000 	msr	CPSR_fc, r0
300048ec:	e49d0004 	pop	{r0}		; (ldr r0, [sp], #4)
300048f0:	e3a00000 	mov	r0, #0
300048f4:	eaffffd9 	b	30004860 <OSQPostFront+0x2c>
300048f8:	e3a02004 	mov	r2, #4
300048fc:	ebfffc00 	bl	30003904 <OS_EventTaskRdy>
30004900:	e52d0004 	push	{r0}		; (str r0, [sp, #-4]!)
30004904:	e10f0000 	mrs	r0, CPSR
30004908:	e3c000c0 	bic	r0, r0, #192	; 0xc0
3000490c:	e129f000 	msr	CPSR_fc, r0
30004910:	e49d0004 	pop	{r0}		; (ldr r0, [sp], #4)
30004914:	ebfffc5a 	bl	30003a84 <OS_Sched>
30004918:	e3a00000 	mov	r0, #0
3000491c:	eaffffcf 	b	30004860 <OSQPostFront+0x2c>

30004920 <OSQPostOpt>:
30004920:	e92d4038 	push	{r3, r4, r5, lr}
30004924:	e2504000 	subs	r4, r0, #0
30004928:	e1a05001 	mov	r5, r1
3000492c:	03a00004 	moveq	r0, #4
30004930:	0a000006 	beq	30004950 <OSQPostOpt+0x30>
30004934:	e3510000 	cmp	r1, #0
30004938:	03a00003 	moveq	r0, #3
3000493c:	0a000003 	beq	30004950 <OSQPostOpt+0x30>
30004940:	e5d43000 	ldrb	r3, [r4]
30004944:	e3530002 	cmp	r3, #2
30004948:	13a00001 	movne	r0, #1
3000494c:	0a000001 	beq	30004958 <OSQPostOpt+0x38>
30004950:	e8bd4038 	pop	{r3, r4, r5, lr}
30004954:	e12fff1e 	bx	lr
30004958:	e52d0004 	push	{r0}		; (str r0, [sp, #-4]!)
3000495c:	e10f0000 	mrs	r0, CPSR
30004960:	e38000c0 	orr	r0, r0, #192	; 0xc0
30004964:	e129f000 	msr	CPSR_fc, r0
30004968:	e49d0004 	pop	{r0}		; (ldr r0, [sp], #4)
3000496c:	e5d40001 	ldrb	r0, [r4, #1]
30004970:	e3500000 	cmp	r0, #0
30004974:	0a000010 	beq	300049bc <OSQPostOpt+0x9c>
30004978:	e3120001 	tst	r2, #1
3000497c:	0a000034 	beq	30004a54 <OSQPostOpt+0x134>
30004980:	e1a01005 	mov	r1, r5
30004984:	e1a00004 	mov	r0, r4
30004988:	e3a02004 	mov	r2, #4
3000498c:	ebfffbdc 	bl	30003904 <OS_EventTaskRdy>
30004990:	e5d41001 	ldrb	r1, [r4, #1]
30004994:	e3510000 	cmp	r1, #0
30004998:	1afffff8 	bne	30004980 <OSQPostOpt+0x60>
3000499c:	e52d0004 	push	{r0}		; (str r0, [sp, #-4]!)
300049a0:	e10f0000 	mrs	r0, CPSR
300049a4:	e3c000c0 	bic	r0, r0, #192	; 0xc0
300049a8:	e129f000 	msr	CPSR_fc, r0
300049ac:	e49d0004 	pop	{r0}		; (ldr r0, [sp], #4)
300049b0:	ebfffc33 	bl	30003a84 <OS_Sched>
300049b4:	e3a00000 	mov	r0, #0
300049b8:	eaffffe4 	b	30004950 <OSQPostOpt+0x30>
300049bc:	e5943004 	ldr	r3, [r4, #4]
300049c0:	e1d311b6 	ldrh	r1, [r3, #22]
300049c4:	e1d3c1b4 	ldrh	ip, [r3, #20]
300049c8:	e15c0001 	cmp	ip, r1
300049cc:	8a000006 	bhi	300049ec <OSQPostOpt+0xcc>
300049d0:	e52d0004 	push	{r0}		; (str r0, [sp, #-4]!)
300049d4:	e10f0000 	mrs	r0, CPSR
300049d8:	e3c000c0 	bic	r0, r0, #192	; 0xc0
300049dc:	e129f000 	msr	CPSR_fc, r0
300049e0:	e49d0004 	pop	{r0}		; (ldr r0, [sp], #4)
300049e4:	e3a0001e 	mov	r0, #30
300049e8:	eaffffd8 	b	30004950 <OSQPostOpt+0x30>
300049ec:	e3120002 	tst	r2, #2
300049f0:	1a00000f 	bne	30004a34 <OSQPostOpt+0x114>
300049f4:	e2830008 	add	r0, r3, #8
300049f8:	e8900005 	ldm	r0, {r0, r2}
300049fc:	e4825004 	str	r5, [r2], #4
30004a00:	e1520000 	cmp	r2, r0
30004a04:	e583200c 	str	r2, [r3, #12]
30004a08:	05932004 	ldreq	r2, [r3, #4]
30004a0c:	0583200c 	streq	r2, [r3, #12]
30004a10:	e2811001 	add	r1, r1, #1
30004a14:	e1c311b6 	strh	r1, [r3, #22]
30004a18:	e52d0004 	push	{r0}		; (str r0, [sp, #-4]!)
30004a1c:	e10f0000 	mrs	r0, CPSR
30004a20:	e3c000c0 	bic	r0, r0, #192	; 0xc0
30004a24:	e129f000 	msr	CPSR_fc, r0
30004a28:	e49d0004 	pop	{r0}		; (ldr r0, [sp], #4)
30004a2c:	e3a00000 	mov	r0, #0
30004a30:	eaffffc6 	b	30004950 <OSQPostOpt+0x30>
30004a34:	e5932010 	ldr	r2, [r3, #16]
30004a38:	e593c004 	ldr	ip, [r3, #4]
30004a3c:	e152000c 	cmp	r2, ip
30004a40:	05932008 	ldreq	r2, [r3, #8]
30004a44:	e2420004 	sub	r0, r2, #4
30004a48:	e5830010 	str	r0, [r3, #16]
30004a4c:	e5025004 	str	r5, [r2, #-4]
30004a50:	eaffffee 	b	30004a10 <OSQPostOpt+0xf0>
30004a54:	e1a00004 	mov	r0, r4
30004a58:	e3a02004 	mov	r2, #4
30004a5c:	ebfffba8 	bl	30003904 <OS_EventTaskRdy>
30004a60:	eaffffcd 	b	3000499c <OSQPostOpt+0x7c>

30004a64 <OSQQuery>:
30004a64:	e3500000 	cmp	r0, #0
30004a68:	03a00004 	moveq	r0, #4
30004a6c:	012fff1e 	bxeq	lr
30004a70:	e5d03000 	ldrb	r3, [r0]
30004a74:	e3530002 	cmp	r3, #2
30004a78:	0a000001 	beq	30004a84 <OSQQuery+0x20>
30004a7c:	e3a00001 	mov	r0, #1
30004a80:	e12fff1e 	bx	lr
30004a84:	e52d0004 	push	{r0}		; (str r0, [sp, #-4]!)
30004a88:	e10f0000 	mrs	r0, CPSR
30004a8c:	e38000c0 	orr	r0, r0, #192	; 0xc0
30004a90:	e129f000 	msr	CPSR_fc, r0
30004a94:	e49d0004 	pop	{r0}		; (ldr r0, [sp], #4)
30004a98:	e5d02001 	ldrb	r2, [r0, #1]
30004a9c:	e5c1200a 	strb	r2, [r1, #10]
30004aa0:	e5d0c008 	ldrb	ip, [r0, #8]
30004aa4:	e5c1c008 	strb	ip, [r1, #8]
30004aa8:	e5d03009 	ldrb	r3, [r0, #9]
30004aac:	e5c13009 	strb	r3, [r1, #9]
30004ab0:	e590c004 	ldr	ip, [r0, #4]
30004ab4:	e1dc21b6 	ldrh	r2, [ip, #22]
30004ab8:	e3520000 	cmp	r2, #0
30004abc:	159c0010 	ldrne	r0, [ip, #16]
30004ac0:	15900000 	ldrne	r0, [r0]
30004ac4:	15810000 	strne	r0, [r1]
30004ac8:	e1dc01b4 	ldrh	r0, [ip, #20]
30004acc:	05812000 	streq	r2, [r1]
30004ad0:	e1c120b4 	strh	r2, [r1, #4]
30004ad4:	e1c100b6 	strh	r0, [r1, #6]
30004ad8:	e52d0004 	push	{r0}		; (str r0, [sp, #-4]!)
30004adc:	e10f0000 	mrs	r0, CPSR
30004ae0:	e3c000c0 	bic	r0, r0, #192	; 0xc0
30004ae4:	e129f000 	msr	CPSR_fc, r0
30004ae8:	e49d0004 	pop	{r0}		; (ldr r0, [sp], #4)
30004aec:	e3a00000 	mov	r0, #0
30004af0:	e12fff1e 	bx	lr

30004af4 <OS_QInit>:
30004af4:	e59f3018 	ldr	r3, [pc, #24]	; 30004b14 <OS_QInit+0x20>
30004af8:	e59f2018 	ldr	r2, [pc, #24]	; 30004b18 <OS_QInit+0x24>
30004afc:	e2831018 	add	r1, r3, #24
30004b00:	e3a00000 	mov	r0, #0
30004b04:	e5831000 	str	r1, [r3]
30004b08:	e5830018 	str	r0, [r3, #24]
30004b0c:	e5823000 	str	r3, [r2]
30004b10:	e12fff1e 	bx	lr
30004b14:	30005934 	andcc	r5, r0, r4, lsr r9
30004b18:	30005968 	andcc	r5, r0, r8, ror #18

30004b1c <OSMboxAccept>:
30004b1c:	e2503000 	subs	r3, r0, #0
30004b20:	01a00003 	moveq	r0, r3
30004b24:	012fff1e 	bxeq	lr
30004b28:	e5d32000 	ldrb	r2, [r3]
30004b2c:	e3520001 	cmp	r2, #1
30004b30:	0a000001 	beq	30004b3c <OSMboxAccept+0x20>
30004b34:	e3a00000 	mov	r0, #0
30004b38:	e12fff1e 	bx	lr
30004b3c:	e52d0004 	push	{r0}		; (str r0, [sp, #-4]!)
30004b40:	e10f0000 	mrs	r0, CPSR
30004b44:	e38000c0 	orr	r0, r0, #192	; 0xc0
30004b48:	e129f000 	msr	CPSR_fc, r0
30004b4c:	e49d0004 	pop	{r0}		; (ldr r0, [sp], #4)
30004b50:	e3a01000 	mov	r1, #0
30004b54:	e5930004 	ldr	r0, [r3, #4]
30004b58:	e5831004 	str	r1, [r3, #4]
30004b5c:	e52d0004 	push	{r0}		; (str r0, [sp, #-4]!)
30004b60:	e10f0000 	mrs	r0, CPSR
30004b64:	e3c000c0 	bic	r0, r0, #192	; 0xc0
30004b68:	e129f000 	msr	CPSR_fc, r0
30004b6c:	e49d0004 	pop	{r0}		; (ldr r0, [sp], #4)
30004b70:	e12fff1e 	bx	lr

30004b74 <OSMboxCreate>:
30004b74:	e92d4010 	push	{r4, lr}
30004b78:	e59f1078 	ldr	r1, [pc, #120]	; 30004bf8 <OSMboxCreate+0x84>
30004b7c:	e5d13000 	ldrb	r3, [r1]
30004b80:	e3530000 	cmp	r3, #0
30004b84:	13a04000 	movne	r4, #0
30004b88:	1a000017 	bne	30004bec <OSMboxCreate+0x78>
30004b8c:	e52d0004 	push	{r0}		; (str r0, [sp, #-4]!)
30004b90:	e10f0000 	mrs	r0, CPSR
30004b94:	e38000c0 	orr	r0, r0, #192	; 0xc0
30004b98:	e129f000 	msr	CPSR_fc, r0
30004b9c:	e49d0004 	pop	{r0}		; (ldr r0, [sp], #4)
30004ba0:	e59fc054 	ldr	ip, [pc, #84]	; 30004bfc <OSMboxCreate+0x88>
30004ba4:	e59c4000 	ldr	r4, [ip]
30004ba8:	e3540000 	cmp	r4, #0
30004bac:	15942004 	ldrne	r2, [r4, #4]
30004bb0:	158c2000 	strne	r2, [ip]
30004bb4:	e52d0004 	push	{r0}		; (str r0, [sp, #-4]!)
30004bb8:	e10f0000 	mrs	r0, CPSR
30004bbc:	e3c000c0 	bic	r0, r0, #192	; 0xc0
30004bc0:	e129f000 	msr	CPSR_fc, r0
30004bc4:	e49d0004 	pop	{r0}		; (ldr r0, [sp], #4)
30004bc8:	e3540000 	cmp	r4, #0
30004bcc:	0a000006 	beq	30004bec <OSMboxCreate+0x78>
30004bd0:	e3a0e001 	mov	lr, #1
30004bd4:	e3a02000 	mov	r2, #0
30004bd8:	e5840004 	str	r0, [r4, #4]
30004bdc:	e5c4e000 	strb	lr, [r4]
30004be0:	e1c420b2 	strh	r2, [r4, #2]
30004be4:	e1a00004 	mov	r0, r4
30004be8:	ebfffba0 	bl	30003a70 <OS_EventWaitListInit>
30004bec:	e1a00004 	mov	r0, r4
30004bf0:	e8bd4010 	pop	{r4, lr}
30004bf4:	e12fff1e 	bx	lr
30004bf8:	3000597d 	andcc	r5, r0, sp, ror r9
30004bfc:	30005978 	andcc	r5, r0, r8, ror r9

30004c00 <OSMboxDel>:
30004c00:	e92d4070 	push	{r4, r5, r6, lr}
30004c04:	e59f3160 	ldr	r3, [pc, #352]	; 30004d6c <OSMboxDel+0x16c>
30004c08:	e5d33000 	ldrb	r3, [r3]
30004c0c:	e3530000 	cmp	r3, #0
30004c10:	13e03073 	mvnne	r3, #115	; 0x73
30004c14:	e1a04000 	mov	r4, r0
30004c18:	e1a05002 	mov	r5, r2
30004c1c:	15c23000 	strbne	r3, [r2]
30004c20:	1a000008 	bne	30004c48 <OSMboxDel+0x48>
30004c24:	e3500000 	cmp	r0, #0
30004c28:	03a03004 	moveq	r3, #4
30004c2c:	05c23000 	strbeq	r3, [r2]
30004c30:	0a000004 	beq	30004c48 <OSMboxDel+0x48>
30004c34:	e5d0c000 	ldrb	ip, [r0]
30004c38:	e35c0001 	cmp	ip, #1
30004c3c:	13a0c001 	movne	ip, #1
30004c40:	15c2c000 	strbne	ip, [r2]
30004c44:	0a000002 	beq	30004c54 <OSMboxDel+0x54>
30004c48:	e1a00004 	mov	r0, r4
30004c4c:	e8bd4070 	pop	{r4, r5, r6, lr}
30004c50:	e12fff1e 	bx	lr
30004c54:	e52d0004 	push	{r0}		; (str r0, [sp, #-4]!)
30004c58:	e10f0000 	mrs	r0, CPSR
30004c5c:	e38000c0 	orr	r0, r0, #192	; 0xc0
30004c60:	e129f000 	msr	CPSR_fc, r0
30004c64:	e49d0004 	pop	{r0}		; (ldr r0, [sp], #4)
30004c68:	e5d06001 	ldrb	r6, [r0, #1]
30004c6c:	e2566000 	subs	r6, r6, #0
30004c70:	13a06001 	movne	r6, #1
30004c74:	e3510000 	cmp	r1, #0
30004c78:	1a000009 	bne	30004ca4 <OSMboxDel+0xa4>
30004c7c:	e3560000 	cmp	r6, #0
30004c80:	0a00002c 	beq	30004d38 <OSMboxDel+0x138>
30004c84:	e52d0004 	push	{r0}		; (str r0, [sp, #-4]!)
30004c88:	e10f0000 	mrs	r0, CPSR
30004c8c:	e3c000c0 	bic	r0, r0, #192	; 0xc0
30004c90:	e129f000 	msr	CPSR_fc, r0
30004c94:	e49d0004 	pop	{r0}		; (ldr r0, [sp], #4)
30004c98:	e3a00008 	mov	r0, #8
30004c9c:	e5c20000 	strb	r0, [r2]
30004ca0:	eaffffe8 	b	30004c48 <OSMboxDel+0x48>
30004ca4:	e3510001 	cmp	r1, #1
30004ca8:	0a000007 	beq	30004ccc <OSMboxDel+0xcc>
30004cac:	e52d0004 	push	{r0}		; (str r0, [sp, #-4]!)
30004cb0:	e10f0000 	mrs	r0, CPSR
30004cb4:	e3c000c0 	bic	r0, r0, #192	; 0xc0
30004cb8:	e129f000 	msr	CPSR_fc, r0
30004cbc:	e49d0004 	pop	{r0}		; (ldr r0, [sp], #4)
30004cc0:	e3a00007 	mov	r0, #7
30004cc4:	e5c20000 	strb	r0, [r2]
30004cc8:	eaffffde 	b	30004c48 <OSMboxDel+0x48>
30004ccc:	e3560000 	cmp	r6, #0
30004cd0:	0a000006 	beq	30004cf0 <OSMboxDel+0xf0>
30004cd4:	e1a00004 	mov	r0, r4
30004cd8:	e3a01000 	mov	r1, #0
30004cdc:	e3a02002 	mov	r2, #2
30004ce0:	ebfffb07 	bl	30003904 <OS_EventTaskRdy>
30004ce4:	e5d43001 	ldrb	r3, [r4, #1]
30004ce8:	e3530000 	cmp	r3, #0
30004cec:	1afffff8 	bne	30004cd4 <OSMboxDel+0xd4>
30004cf0:	e3a01000 	mov	r1, #0
30004cf4:	e5c41000 	strb	r1, [r4]
30004cf8:	e59f2070 	ldr	r2, [pc, #112]	; 30004d70 <OSMboxDel+0x170>
30004cfc:	e592c000 	ldr	ip, [r2]
30004d00:	e5824000 	str	r4, [r2]
30004d04:	e584c004 	str	ip, [r4, #4]
30004d08:	e52d0004 	push	{r0}		; (str r0, [sp, #-4]!)
30004d0c:	e10f0000 	mrs	r0, CPSR
30004d10:	e3c000c0 	bic	r0, r0, #192	; 0xc0
30004d14:	e129f000 	msr	CPSR_fc, r0
30004d18:	e49d0004 	pop	{r0}		; (ldr r0, [sp], #4)
30004d1c:	e3560001 	cmp	r6, #1
30004d20:	0a000002 	beq	30004d30 <OSMboxDel+0x130>
30004d24:	e3a04000 	mov	r4, #0
30004d28:	e5c54000 	strb	r4, [r5]
30004d2c:	eaffffc5 	b	30004c48 <OSMboxDel+0x48>
30004d30:	ebfffb53 	bl	30003a84 <OS_Sched>
30004d34:	eafffffa 	b	30004d24 <OSMboxDel+0x124>
30004d38:	e5c06000 	strb	r6, [r0]
30004d3c:	e59f102c 	ldr	r1, [pc, #44]	; 30004d70 <OSMboxDel+0x170>
30004d40:	e5912000 	ldr	r2, [r1]
30004d44:	e5810000 	str	r0, [r1]
30004d48:	e5802004 	str	r2, [r0, #4]
30004d4c:	e52d0004 	push	{r0}		; (str r0, [sp, #-4]!)
30004d50:	e10f0000 	mrs	r0, CPSR
30004d54:	e3c000c0 	bic	r0, r0, #192	; 0xc0
30004d58:	e129f000 	msr	CPSR_fc, r0
30004d5c:	e49d0004 	pop	{r0}		; (ldr r0, [sp], #4)
30004d60:	e3a04000 	mov	r4, #0
30004d64:	e5c54000 	strb	r4, [r5]
30004d68:	eaffffb6 	b	30004c48 <OSMboxDel+0x48>
30004d6c:	3000597d 	andcc	r5, r0, sp, ror r9
30004d70:	30005978 	andcc	r5, r0, r8, ror r9

30004d74 <OSMboxPend>:
30004d74:	e92d4010 	push	{r4, lr}
30004d78:	e59f3160 	ldr	r3, [pc, #352]	; 30004ee0 <OSMboxPend+0x16c>
30004d7c:	e5d33000 	ldrb	r3, [r3]
30004d80:	e3530000 	cmp	r3, #0
30004d84:	13a03002 	movne	r3, #2
30004d88:	15c23000 	strbne	r3, [r2]
30004d8c:	e24dd008 	sub	sp, sp, #8
30004d90:	e1a04000 	mov	r4, r0
30004d94:	13a03000 	movne	r3, #0
30004d98:	1a000019 	bne	30004e04 <OSMboxPend+0x90>
30004d9c:	e3500000 	cmp	r0, #0
30004da0:	03a03004 	moveq	r3, #4
30004da4:	05c23000 	strbeq	r3, [r2]
30004da8:	01a03000 	moveq	r3, r0
30004dac:	0a000014 	beq	30004e04 <OSMboxPend+0x90>
30004db0:	e5d00000 	ldrb	r0, [r0]
30004db4:	e3500001 	cmp	r0, #1
30004db8:	13a01001 	movne	r1, #1
30004dbc:	15c21000 	strbne	r1, [r2]
30004dc0:	1a00000f 	bne	30004e04 <OSMboxPend+0x90>
30004dc4:	e52d0004 	push	{r0}		; (str r0, [sp, #-4]!)
30004dc8:	e10f0000 	mrs	r0, CPSR
30004dcc:	e38000c0 	orr	r0, r0, #192	; 0xc0
30004dd0:	e129f000 	msr	CPSR_fc, r0
30004dd4:	e49d0004 	pop	{r0}		; (ldr r0, [sp], #4)
30004dd8:	e5943004 	ldr	r3, [r4, #4]
30004ddc:	e3530000 	cmp	r3, #0
30004de0:	0a00000b 	beq	30004e14 <OSMboxPend+0xa0>
30004de4:	e3a01000 	mov	r1, #0
30004de8:	e5841004 	str	r1, [r4, #4]
30004dec:	e52d0004 	push	{r0}		; (str r0, [sp, #-4]!)
30004df0:	e10f0000 	mrs	r0, CPSR
30004df4:	e3c000c0 	bic	r0, r0, #192	; 0xc0
30004df8:	e129f000 	msr	CPSR_fc, r0
30004dfc:	e49d0004 	pop	{r0}		; (ldr r0, [sp], #4)
30004e00:	e5c21000 	strb	r1, [r2]
30004e04:	e1a00003 	mov	r0, r3
30004e08:	e28dd008 	add	sp, sp, #8
30004e0c:	e8bd4010 	pop	{r4, lr}
30004e10:	e12fff1e 	bx	lr
30004e14:	e59f00c8 	ldr	r0, [pc, #200]	; 30004ee4 <OSMboxPend+0x170>
30004e18:	e590c000 	ldr	ip, [r0]
30004e1c:	e5dc302c 	ldrb	r3, [ip, #44]	; 0x2c
30004e20:	e383e002 	orr	lr, r3, #2
30004e24:	e5cce02c 	strb	lr, [ip, #44]	; 0x2c
30004e28:	e1cc12ba 	strh	r1, [ip, #42]	; 0x2a
30004e2c:	e1a00004 	mov	r0, r4
30004e30:	e58d2000 	str	r2, [sp]
30004e34:	ebfffade 	bl	300039b4 <OS_EventTaskWait>
30004e38:	e52d0004 	push	{r0}		; (str r0, [sp, #-4]!)
30004e3c:	e10f0000 	mrs	r0, CPSR
30004e40:	e3c000c0 	bic	r0, r0, #192	; 0xc0
30004e44:	e129f000 	msr	CPSR_fc, r0
30004e48:	e49d0004 	pop	{r0}		; (ldr r0, [sp], #4)
30004e4c:	ebfffb0c 	bl	30003a84 <OS_Sched>
30004e50:	e52d0004 	push	{r0}		; (str r0, [sp, #-4]!)
30004e54:	e10f0000 	mrs	r0, CPSR
30004e58:	e38000c0 	orr	r0, r0, #192	; 0xc0
30004e5c:	e129f000 	msr	CPSR_fc, r0
30004e60:	e49d0004 	pop	{r0}		; (ldr r0, [sp], #4)
30004e64:	e59f2078 	ldr	r2, [pc, #120]	; 30004ee4 <OSMboxPend+0x170>
30004e68:	e5921000 	ldr	r1, [r2]
30004e6c:	e5913020 	ldr	r3, [r1, #32]
30004e70:	e3530000 	cmp	r3, #0
30004e74:	e59d2000 	ldr	r2, [sp]
30004e78:	0a00000b 	beq	30004eac <OSMboxPend+0x138>
30004e7c:	e3a0c000 	mov	ip, #0
30004e80:	e581c020 	str	ip, [r1, #32]
30004e84:	e5c1c02c 	strb	ip, [r1, #44]	; 0x2c
30004e88:	e581c01c 	str	ip, [r1, #28]
30004e8c:	e52d0004 	push	{r0}		; (str r0, [sp, #-4]!)
30004e90:	e10f0000 	mrs	r0, CPSR
30004e94:	e3c000c0 	bic	r0, r0, #192	; 0xc0
30004e98:	e129f000 	msr	CPSR_fc, r0
30004e9c:	e49d0004 	pop	{r0}		; (ldr r0, [sp], #4)
30004ea0:	e3a01000 	mov	r1, #0
30004ea4:	e5c21000 	strb	r1, [r2]
30004ea8:	eaffffd5 	b	30004e04 <OSMboxPend+0x90>
30004eac:	e1a00004 	mov	r0, r4
30004eb0:	e88d000c 	stm	sp, {r2, r3}
30004eb4:	ebfffadb 	bl	30003a28 <OS_EventTO>
30004eb8:	e52d0004 	push	{r0}		; (str r0, [sp, #-4]!)
30004ebc:	e10f0000 	mrs	r0, CPSR
30004ec0:	e3c000c0 	bic	r0, r0, #192	; 0xc0
30004ec4:	e129f000 	msr	CPSR_fc, r0
30004ec8:	e49d0004 	pop	{r0}		; (ldr r0, [sp], #4)
30004ecc:	e59d2000 	ldr	r2, [sp]
30004ed0:	e3a0300a 	mov	r3, #10
30004ed4:	e5c23000 	strb	r3, [r2]
30004ed8:	e59d3004 	ldr	r3, [sp, #4]
30004edc:	eaffffc8 	b	30004e04 <OSMboxPend+0x90>
30004ee0:	3000597d 	andcc	r5, r0, sp, ror r9
30004ee4:	30005980 	andcc	r5, r0, r0, lsl #19

30004ee8 <OSMboxPost>:
30004ee8:	e3500000 	cmp	r0, #0
30004eec:	e92d4008 	push	{r3, lr}
30004ef0:	03a00004 	moveq	r0, #4
30004ef4:	0a000006 	beq	30004f14 <OSMboxPost+0x2c>
30004ef8:	e3510000 	cmp	r1, #0
30004efc:	03a00003 	moveq	r0, #3
30004f00:	0a000003 	beq	30004f14 <OSMboxPost+0x2c>
30004f04:	e5d03000 	ldrb	r3, [r0]
30004f08:	e3530001 	cmp	r3, #1
30004f0c:	13a00001 	movne	r0, #1
30004f10:	0a000001 	beq	30004f1c <OSMboxPost+0x34>
30004f14:	e8bd4008 	pop	{r3, lr}
30004f18:	e12fff1e 	bx	lr
30004f1c:	e52d0004 	push	{r0}		; (str r0, [sp, #-4]!)
30004f20:	e10f0000 	mrs	r0, CPSR
30004f24:	e38000c0 	orr	r0, r0, #192	; 0xc0
30004f28:	e129f000 	msr	CPSR_fc, r0
30004f2c:	e49d0004 	pop	{r0}		; (ldr r0, [sp], #4)
30004f30:	e5d02001 	ldrb	r2, [r0, #1]
30004f34:	e3520000 	cmp	r2, #0
30004f38:	1a000009 	bne	30004f64 <OSMboxPost+0x7c>
30004f3c:	e590c004 	ldr	ip, [r0, #4]
30004f40:	e35c0000 	cmp	ip, #0
30004f44:	0a000010 	beq	30004f8c <OSMboxPost+0xa4>
30004f48:	e52d0004 	push	{r0}		; (str r0, [sp, #-4]!)
30004f4c:	e10f0000 	mrs	r0, CPSR
30004f50:	e3c000c0 	bic	r0, r0, #192	; 0xc0
30004f54:	e129f000 	msr	CPSR_fc, r0
30004f58:	e49d0004 	pop	{r0}		; (ldr r0, [sp], #4)
30004f5c:	e3a00014 	mov	r0, #20
30004f60:	eaffffeb 	b	30004f14 <OSMboxPost+0x2c>
30004f64:	e3a02002 	mov	r2, #2
30004f68:	ebfffa65 	bl	30003904 <OS_EventTaskRdy>
30004f6c:	e52d0004 	push	{r0}		; (str r0, [sp, #-4]!)
30004f70:	e10f0000 	mrs	r0, CPSR
30004f74:	e3c000c0 	bic	r0, r0, #192	; 0xc0
30004f78:	e129f000 	msr	CPSR_fc, r0
30004f7c:	e49d0004 	pop	{r0}		; (ldr r0, [sp], #4)
30004f80:	ebfffabf 	bl	30003a84 <OS_Sched>
30004f84:	e3a00000 	mov	r0, #0
30004f88:	eaffffe1 	b	30004f14 <OSMboxPost+0x2c>
30004f8c:	e5801004 	str	r1, [r0, #4]
30004f90:	e52d0004 	push	{r0}		; (str r0, [sp, #-4]!)
30004f94:	e10f0000 	mrs	r0, CPSR
30004f98:	e3c000c0 	bic	r0, r0, #192	; 0xc0
30004f9c:	e129f000 	msr	CPSR_fc, r0
30004fa0:	e49d0004 	pop	{r0}		; (ldr r0, [sp], #4)
30004fa4:	e3a00000 	mov	r0, #0
30004fa8:	eaffffd9 	b	30004f14 <OSMboxPost+0x2c>

30004fac <OSMboxPostOpt>:
30004fac:	e92d4038 	push	{r3, r4, r5, lr}
30004fb0:	e2504000 	subs	r4, r0, #0
30004fb4:	e1a05001 	mov	r5, r1
30004fb8:	03a00004 	moveq	r0, #4
30004fbc:	0a000006 	beq	30004fdc <OSMboxPostOpt+0x30>
30004fc0:	e3510000 	cmp	r1, #0
30004fc4:	03a00003 	moveq	r0, #3
30004fc8:	0a000003 	beq	30004fdc <OSMboxPostOpt+0x30>
30004fcc:	e5d43000 	ldrb	r3, [r4]
30004fd0:	e3530001 	cmp	r3, #1
30004fd4:	13a00001 	movne	r0, #1
30004fd8:	0a000001 	beq	30004fe4 <OSMboxPostOpt+0x38>
30004fdc:	e8bd4038 	pop	{r3, r4, r5, lr}
30004fe0:	e12fff1e 	bx	lr
30004fe4:	e52d0004 	push	{r0}		; (str r0, [sp, #-4]!)
30004fe8:	e10f0000 	mrs	r0, CPSR
30004fec:	e38000c0 	orr	r0, r0, #192	; 0xc0
30004ff0:	e129f000 	msr	CPSR_fc, r0
30004ff4:	e49d0004 	pop	{r0}		; (ldr r0, [sp], #4)
30004ff8:	e5d40001 	ldrb	r0, [r4, #1]
30004ffc:	e3500000 	cmp	r0, #0
30005000:	0a000010 	beq	30005048 <OSMboxPostOpt+0x9c>
30005004:	e3120001 	tst	r2, #1
30005008:	0a000018 	beq	30005070 <OSMboxPostOpt+0xc4>
3000500c:	e1a01005 	mov	r1, r5
30005010:	e1a00004 	mov	r0, r4
30005014:	e3a02002 	mov	r2, #2
30005018:	ebfffa39 	bl	30003904 <OS_EventTaskRdy>
3000501c:	e5d41001 	ldrb	r1, [r4, #1]
30005020:	e3510000 	cmp	r1, #0
30005024:	1afffff8 	bne	3000500c <OSMboxPostOpt+0x60>
30005028:	e52d0004 	push	{r0}		; (str r0, [sp, #-4]!)
3000502c:	e10f0000 	mrs	r0, CPSR
30005030:	e3c000c0 	bic	r0, r0, #192	; 0xc0
30005034:	e129f000 	msr	CPSR_fc, r0
30005038:	e49d0004 	pop	{r0}		; (ldr r0, [sp], #4)
3000503c:	ebfffa90 	bl	30003a84 <OS_Sched>
30005040:	e3a00000 	mov	r0, #0
30005044:	eaffffe4 	b	30004fdc <OSMboxPostOpt+0x30>
30005048:	e5942004 	ldr	r2, [r4, #4]
3000504c:	e3520000 	cmp	r2, #0
30005050:	0a00000a 	beq	30005080 <OSMboxPostOpt+0xd4>
30005054:	e52d0004 	push	{r0}		; (str r0, [sp, #-4]!)
30005058:	e10f0000 	mrs	r0, CPSR
3000505c:	e3c000c0 	bic	r0, r0, #192	; 0xc0
30005060:	e129f000 	msr	CPSR_fc, r0
30005064:	e49d0004 	pop	{r0}		; (ldr r0, [sp], #4)
30005068:	e3a00014 	mov	r0, #20
3000506c:	eaffffda 	b	30004fdc <OSMboxPostOpt+0x30>
30005070:	e1a00004 	mov	r0, r4
30005074:	e3a02002 	mov	r2, #2
30005078:	ebfffa21 	bl	30003904 <OS_EventTaskRdy>
3000507c:	eaffffe9 	b	30005028 <OSMboxPostOpt+0x7c>
30005080:	e5841004 	str	r1, [r4, #4]
30005084:	e52d0004 	push	{r0}		; (str r0, [sp, #-4]!)
30005088:	e10f0000 	mrs	r0, CPSR
3000508c:	e3c000c0 	bic	r0, r0, #192	; 0xc0
30005090:	e129f000 	msr	CPSR_fc, r0
30005094:	e49d0004 	pop	{r0}		; (ldr r0, [sp], #4)
30005098:	e3a00000 	mov	r0, #0
3000509c:	eaffffce 	b	30004fdc <OSMboxPostOpt+0x30>

300050a0 <OSMboxQuery>:
300050a0:	e3500000 	cmp	r0, #0
300050a4:	03a00004 	moveq	r0, #4
300050a8:	012fff1e 	bxeq	lr
300050ac:	e5d03000 	ldrb	r3, [r0]
300050b0:	e3530001 	cmp	r3, #1
300050b4:	0a000001 	beq	300050c0 <OSMboxQuery+0x20>
300050b8:	e3a00001 	mov	r0, #1
300050bc:	e12fff1e 	bx	lr
300050c0:	e52d0004 	push	{r0}		; (str r0, [sp, #-4]!)
300050c4:	e10f0000 	mrs	r0, CPSR
300050c8:	e38000c0 	orr	r0, r0, #192	; 0xc0
300050cc:	e129f000 	msr	CPSR_fc, r0
300050d0:	e49d0004 	pop	{r0}		; (ldr r0, [sp], #4)
300050d4:	e5d03001 	ldrb	r3, [r0, #1]
300050d8:	e5c13006 	strb	r3, [r1, #6]
300050dc:	e5d0c008 	ldrb	ip, [r0, #8]
300050e0:	e5c1c004 	strb	ip, [r1, #4]
300050e4:	e5d02009 	ldrb	r2, [r0, #9]
300050e8:	e5c12005 	strb	r2, [r1, #5]
300050ec:	e5900004 	ldr	r0, [r0, #4]
300050f0:	e5810000 	str	r0, [r1]
300050f4:	e52d0004 	push	{r0}		; (str r0, [sp, #-4]!)
300050f8:	e10f0000 	mrs	r0, CPSR
300050fc:	e3c000c0 	bic	r0, r0, #192	; 0xc0
30005100:	e129f000 	msr	CPSR_fc, r0
30005104:	e49d0004 	pop	{r0}		; (ldr r0, [sp], #4)
30005108:	e3a00000 	mov	r0, #0
3000510c:	e12fff1e 	bx	lr

30005110 <OSMemCreate>:
30005110:	e250c000 	subs	ip, r0, #0
30005114:	03a02076 	moveq	r2, #118	; 0x76
30005118:	e92d05f0 	push	{r4, r5, r6, r7, r8, sl}
3000511c:	05c32000 	strbeq	r2, [r3]
30005120:	01a0000c 	moveq	r0, ip
30005124:	0a00003f 	beq	30005228 <OSMemCreate+0x118>
30005128:	e3510001 	cmp	r1, #1
3000512c:	93a0206f 	movls	r2, #111	; 0x6f
30005130:	95c32000 	strbls	r2, [r3]
30005134:	93a00000 	movls	r0, #0
30005138:	9a00003a 	bls	30005228 <OSMemCreate+0x118>
3000513c:	e3520003 	cmp	r2, #3
30005140:	93a02070 	movls	r2, #112	; 0x70
30005144:	95c32000 	strbls	r2, [r3]
30005148:	93a00000 	movls	r0, #0
3000514c:	9a000035 	bls	30005228 <OSMemCreate+0x118>
30005150:	e52d0004 	push	{r0}		; (str r0, [sp, #-4]!)
30005154:	e10f0000 	mrs	r0, CPSR
30005158:	e38000c0 	orr	r0, r0, #192	; 0xc0
3000515c:	e129f000 	msr	CPSR_fc, r0
30005160:	e49d0004 	pop	{r0}		; (ldr r0, [sp], #4)
30005164:	e59f40c4 	ldr	r4, [pc, #196]	; 30005230 <OSMemCreate+0x120>
30005168:	e5940000 	ldr	r0, [r4]
3000516c:	e3500000 	cmp	r0, #0
30005170:	15905004 	ldrne	r5, [r0, #4]
30005174:	15845000 	strne	r5, [r4]
30005178:	e52d0004 	push	{r0}		; (str r0, [sp, #-4]!)
3000517c:	e10f0000 	mrs	r0, CPSR
30005180:	e3c000c0 	bic	r0, r0, #192	; 0xc0
30005184:	e129f000 	msr	CPSR_fc, r0
30005188:	e49d0004 	pop	{r0}		; (ldr r0, [sp], #4)
3000518c:	e3500000 	cmp	r0, #0
30005190:	03a0206e 	moveq	r2, #110	; 0x6e
30005194:	05c32000 	strbeq	r2, [r3]
30005198:	0a000022 	beq	30005228 <OSMemCreate+0x118>
3000519c:	e3a05001 	mov	r5, #1
300051a0:	e2418001 	sub	r8, r1, #1
300051a4:	e08ca002 	add	sl, ip, r2
300051a8:	e1550008 	cmp	r5, r8
300051ac:	e0017005 	and	r7, r1, r5
300051b0:	e58ca000 	str	sl, [ip]
300051b4:	e1a0600a 	mov	r6, sl
300051b8:	e08a4002 	add	r4, sl, r2
300051bc:	2a00000f 	bcs	30005200 <OSMemCreate+0xf0>
300051c0:	e3570000 	cmp	r7, #0
300051c4:	0a000005 	beq	300051e0 <OSMemCreate+0xd0>
300051c8:	e3a05002 	mov	r5, #2
300051cc:	e1550008 	cmp	r5, r8
300051d0:	e58a4000 	str	r4, [sl]
300051d4:	e1a06004 	mov	r6, r4
300051d8:	e0844002 	add	r4, r4, r2
300051dc:	2a000007 	bcs	30005200 <OSMemCreate+0xf0>
300051e0:	e2855002 	add	r5, r5, #2
300051e4:	e0847002 	add	r7, r4, r2
300051e8:	e1550008 	cmp	r5, r8
300051ec:	e5864000 	str	r4, [r6]
300051f0:	e5847000 	str	r7, [r4]
300051f4:	e1a06007 	mov	r6, r7
300051f8:	e0874002 	add	r4, r7, r2
300051fc:	3afffff7 	bcc	300051e0 <OSMemCreate+0xd0>
30005200:	e2415002 	sub	r5, r1, #2
30005204:	e0050592 	mul	r5, r2, r5
30005208:	e3a04000 	mov	r4, #0
3000520c:	e78a4005 	str	r4, [sl, r5]
30005210:	e580c000 	str	ip, [r0]
30005214:	e580c004 	str	ip, [r0, #4]
30005218:	e5801010 	str	r1, [r0, #16]
3000521c:	e580100c 	str	r1, [r0, #12]
30005220:	e5802008 	str	r2, [r0, #8]
30005224:	e5c34000 	strb	r4, [r3]
30005228:	e8bd05f0 	pop	{r4, r5, r6, r7, r8, sl}
3000522c:	e12fff1e 	bx	lr
30005230:	30005930 	andcc	r5, r0, r0, lsr r9

30005234 <OSMemGet>:
30005234:	e2503000 	subs	r3, r0, #0
30005238:	03a02074 	moveq	r2, #116	; 0x74
3000523c:	05c12000 	strbeq	r2, [r1]
30005240:	01a00003 	moveq	r0, r3
30005244:	012fff1e 	bxeq	lr
30005248:	e52d0004 	push	{r0}		; (str r0, [sp, #-4]!)
3000524c:	e10f0000 	mrs	r0, CPSR
30005250:	e38000c0 	orr	r0, r0, #192	; 0xc0
30005254:	e129f000 	msr	CPSR_fc, r0
30005258:	e49d0004 	pop	{r0}		; (ldr r0, [sp], #4)
3000525c:	e5932010 	ldr	r2, [r3, #16]
30005260:	e3520000 	cmp	r2, #0
30005264:	0a00000c 	beq	3000529c <OSMemGet+0x68>
30005268:	e5930004 	ldr	r0, [r3, #4]
3000526c:	e590c000 	ldr	ip, [r0]
30005270:	e2422001 	sub	r2, r2, #1
30005274:	e583c004 	str	ip, [r3, #4]
30005278:	e5832010 	str	r2, [r3, #16]
3000527c:	e52d0004 	push	{r0}		; (str r0, [sp, #-4]!)
30005280:	e10f0000 	mrs	r0, CPSR
30005284:	e3c000c0 	bic	r0, r0, #192	; 0xc0
30005288:	e129f000 	msr	CPSR_fc, r0
3000528c:	e49d0004 	pop	{r0}		; (ldr r0, [sp], #4)
30005290:	e3a03000 	mov	r3, #0
30005294:	e5c13000 	strb	r3, [r1]
30005298:	e12fff1e 	bx	lr
3000529c:	e52d0004 	push	{r0}		; (str r0, [sp, #-4]!)
300052a0:	e10f0000 	mrs	r0, CPSR
300052a4:	e3c000c0 	bic	r0, r0, #192	; 0xc0
300052a8:	e129f000 	msr	CPSR_fc, r0
300052ac:	e49d0004 	pop	{r0}		; (ldr r0, [sp], #4)
300052b0:	e3a00071 	mov	r0, #113	; 0x71
300052b4:	e5c10000 	strb	r0, [r1]
300052b8:	e3a00000 	mov	r0, #0
300052bc:	e12fff1e 	bx	lr

300052c0 <OSMemPut>:
300052c0:	e3500000 	cmp	r0, #0
300052c4:	03a00074 	moveq	r0, #116	; 0x74
300052c8:	012fff1e 	bxeq	lr
300052cc:	e3510000 	cmp	r1, #0
300052d0:	0a00001b 	beq	30005344 <OSMemPut+0x84>
300052d4:	e52d0004 	push	{r0}		; (str r0, [sp, #-4]!)
300052d8:	e10f0000 	mrs	r0, CPSR
300052dc:	e38000c0 	orr	r0, r0, #192	; 0xc0
300052e0:	e129f000 	msr	CPSR_fc, r0
300052e4:	e49d0004 	pop	{r0}		; (ldr r0, [sp], #4)
300052e8:	e280200c 	add	r2, r0, #12
300052ec:	e892000c 	ldm	r2, {r2, r3}
300052f0:	e1530002 	cmp	r3, r2
300052f4:	3a000006 	bcc	30005314 <OSMemPut+0x54>
300052f8:	e52d0004 	push	{r0}		; (str r0, [sp, #-4]!)
300052fc:	e10f0000 	mrs	r0, CPSR
30005300:	e3c000c0 	bic	r0, r0, #192	; 0xc0
30005304:	e129f000 	msr	CPSR_fc, r0
30005308:	e49d0004 	pop	{r0}		; (ldr r0, [sp], #4)
3000530c:	e3a00072 	mov	r0, #114	; 0x72
30005310:	e12fff1e 	bx	lr
30005314:	e590c004 	ldr	ip, [r0, #4]
30005318:	e2833001 	add	r3, r3, #1
3000531c:	e581c000 	str	ip, [r1]
30005320:	e5801004 	str	r1, [r0, #4]
30005324:	e5803010 	str	r3, [r0, #16]
30005328:	e52d0004 	push	{r0}		; (str r0, [sp, #-4]!)
3000532c:	e10f0000 	mrs	r0, CPSR
30005330:	e3c000c0 	bic	r0, r0, #192	; 0xc0
30005334:	e129f000 	msr	CPSR_fc, r0
30005338:	e49d0004 	pop	{r0}		; (ldr r0, [sp], #4)
3000533c:	e3a00000 	mov	r0, #0
30005340:	e12fff1e 	bx	lr
30005344:	e3a00073 	mov	r0, #115	; 0x73
30005348:	e12fff1e 	bx	lr

3000534c <OSMemQuery>:
3000534c:	e3500000 	cmp	r0, #0
30005350:	e92d0030 	push	{r4, r5}
30005354:	03a00074 	moveq	r0, #116	; 0x74
30005358:	0a000017 	beq	300053bc <OSMemQuery+0x70>
3000535c:	e3510000 	cmp	r1, #0
30005360:	03a00075 	moveq	r0, #117	; 0x75
30005364:	0a000014 	beq	300053bc <OSMemQuery+0x70>
30005368:	e52d0004 	push	{r0}		; (str r0, [sp, #-4]!)
3000536c:	e10f0000 	mrs	r0, CPSR
30005370:	e38000c0 	orr	r0, r0, #192	; 0xc0
30005374:	e129f000 	msr	CPSR_fc, r0
30005378:	e49d0004 	pop	{r0}		; (ldr r0, [sp], #4)
3000537c:	e5905000 	ldr	r5, [r0]
30005380:	e9901010 	ldmib	r0, {r4, ip}
30005384:	e590200c 	ldr	r2, [r0, #12]
30005388:	e5900010 	ldr	r0, [r0, #16]
3000538c:	e5815000 	str	r5, [r1]
30005390:	e9811010 	stmib	r1, {r4, ip}
30005394:	e581200c 	str	r2, [r1, #12]
30005398:	e5810010 	str	r0, [r1, #16]
3000539c:	e52d0004 	push	{r0}		; (str r0, [sp, #-4]!)
300053a0:	e10f0000 	mrs	r0, CPSR
300053a4:	e3c000c0 	bic	r0, r0, #192	; 0xc0
300053a8:	e129f000 	msr	CPSR_fc, r0
300053ac:	e49d0004 	pop	{r0}		; (ldr r0, [sp], #4)
300053b0:	e0603002 	rsb	r3, r0, r2
300053b4:	e5813014 	str	r3, [r1, #20]
300053b8:	e3a00000 	mov	r0, #0
300053bc:	e8bd0030 	pop	{r4, r5}
300053c0:	e12fff1e 	bx	lr

300053c4 <OS_MemInit>:
300053c4:	e59f3088 	ldr	r3, [pc, #136]	; 30005454 <OS_MemInit+0x90>
300053c8:	e3a02000 	mov	r2, #0
300053cc:	e52d4004 	push	{r4}		; (str r4, [sp, #-4]!)
300053d0:	e5832000 	str	r2, [r3]
300053d4:	e5832010 	str	r2, [r3, #16]
300053d8:	e583200c 	str	r2, [r3, #12]
300053dc:	e5832008 	str	r2, [r3, #8]
300053e0:	e5832014 	str	r2, [r3, #20]
300053e4:	e5832024 	str	r2, [r3, #36]	; 0x24
300053e8:	e5832020 	str	r2, [r3, #32]
300053ec:	e583201c 	str	r2, [r3, #28]
300053f0:	e5832028 	str	r2, [r3, #40]	; 0x28
300053f4:	e5832038 	str	r2, [r3, #56]	; 0x38
300053f8:	e5832034 	str	r2, [r3, #52]	; 0x34
300053fc:	e5832030 	str	r2, [r3, #48]	; 0x30
30005400:	e583203c 	str	r2, [r3, #60]	; 0x3c
30005404:	e583204c 	str	r2, [r3, #76]	; 0x4c
30005408:	e5832048 	str	r2, [r3, #72]	; 0x48
3000540c:	e5832044 	str	r2, [r3, #68]	; 0x44
30005410:	e5832054 	str	r2, [r3, #84]	; 0x54
30005414:	e5832050 	str	r2, [r3, #80]	; 0x50
30005418:	e5832060 	str	r2, [r3, #96]	; 0x60
3000541c:	e583205c 	str	r2, [r3, #92]	; 0x5c
30005420:	e5832058 	str	r2, [r3, #88]	; 0x58
30005424:	e59f202c 	ldr	r2, [pc, #44]	; 30005458 <OS_MemInit+0x94>
30005428:	e2834014 	add	r4, r3, #20
3000542c:	e283c028 	add	ip, r3, #40	; 0x28
30005430:	e283003c 	add	r0, r3, #60	; 0x3c
30005434:	e2831050 	add	r1, r3, #80	; 0x50
30005438:	e5834004 	str	r4, [r3, #4]
3000543c:	e583c018 	str	ip, [r3, #24]
30005440:	e583002c 	str	r0, [r3, #44]	; 0x2c
30005444:	e5831040 	str	r1, [r3, #64]	; 0x40
30005448:	e5823000 	str	r3, [r2]
3000544c:	e49d4004 	pop	{r4}		; (ldr r4, [sp], #4)
30005450:	e12fff1e 	bx	lr
30005454:	30005880 	andcc	r5, r0, r0, lsl #17
30005458:	30005930 	andcc	r5, r0, r0, lsr r9

3000545c <OSStartHighRdy>:
3000545c:	e59f4104 	ldr	r4, [pc, #260]	; 30005568 <_OS_TASK_SW+0x5c>
30005460:	e59f5104 	ldr	r5, [pc, #260]	; 3000556c <_OS_TASK_SW+0x60>
30005464:	e5955000 	ldr	r5, [r5]
30005468:	e595d000 	ldr	sp, [r5]
3000546c:	e5845000 	str	r5, [r4]
30005470:	e49d4004 	pop	{r4}		; (ldr r4, [sp], #4)
30005474:	e169f004 	msr	SPSR_fc, r4
30005478:	e49d4004 	pop	{r4}		; (ldr r4, [sp], #4)
3000547c:	e129f004 	msr	CPSR_fc, r4
30005480:	e8bddfff 	pop	{r0, r1, r2, r3, r4, r5, r6, r7, r8, r9, sl, fp, ip, lr, pc}

30005484 <OSIntCtxSw>:
30005484:	e28d7010 	add	r7, sp, #16
30005488:	e3a0db03 	mov	sp, #3072	; 0xc00
3000548c:	e14f1000 	mrs	r1, SPSR
30005490:	e38110c0 	orr	r1, r1, #192	; 0xc0
30005494:	e12ff001 	msr	CPSR_fsxc, r1
30005498:	e5970034 	ldr	r0, [r7, #52]	; 0x34
3000549c:	e2400004 	sub	r0, r0, #4
300054a0:	e52d0004 	push	{r0}		; (str r0, [sp, #-4]!)
300054a4:	e52de004 	push	{lr}		; (str lr, [sp, #-4]!)
300054a8:	e1a0e007 	mov	lr, r7
300054ac:	e8be1fff 	ldm	lr!, {r0, r1, r2, r3, r4, r5, r6, r7, r8, r9, sl, fp, ip}
300054b0:	e92d1fff 	push	{r0, r1, r2, r3, r4, r5, r6, r7, r8, r9, sl, fp, ip}
300054b4:	e10f4000 	mrs	r4, CPSR
300054b8:	e3c440c0 	bic	r4, r4, #192	; 0xc0
300054bc:	e52d4004 	push	{r4}		; (str r4, [sp, #-4]!)
300054c0:	e14f4000 	mrs	r4, SPSR
300054c4:	e52d4004 	push	{r4}		; (str r4, [sp, #-4]!)
300054c8:	e59f40a0 	ldr	r4, [pc, #160]	; 30005570 <_OS_TASK_SW+0x64>
300054cc:	e59f50a0 	ldr	r5, [pc, #160]	; 30005574 <_OS_TASK_SW+0x68>
300054d0:	e5d56000 	ldrb	r6, [r5]
300054d4:	e5c46000 	strb	r6, [r4]
300054d8:	e59f4088 	ldr	r4, [pc, #136]	; 30005568 <_OS_TASK_SW+0x5c>
300054dc:	e5945000 	ldr	r5, [r4]
300054e0:	e585d000 	str	sp, [r5]
300054e4:	e59f6080 	ldr	r6, [pc, #128]	; 3000556c <_OS_TASK_SW+0x60>
300054e8:	e5966000 	ldr	r6, [r6]
300054ec:	e596d000 	ldr	sp, [r6]
300054f0:	e5846000 	str	r6, [r4]
300054f4:	e49d4004 	pop	{r4}		; (ldr r4, [sp], #4)
300054f8:	e169f004 	msr	SPSR_fc, r4
300054fc:	e49d4004 	pop	{r4}		; (ldr r4, [sp], #4)
30005500:	e3c440c0 	bic	r4, r4, #192	; 0xc0
30005504:	e129f004 	msr	CPSR_fc, r4
30005508:	e8bddfff 	pop	{r0, r1, r2, r3, r4, r5, r6, r7, r8, r9, sl, fp, ip, lr, pc}

3000550c <_OS_TASK_SW>:
3000550c:	e52de004 	push	{lr}		; (str lr, [sp, #-4]!)
30005510:	e52de004 	push	{lr}		; (str lr, [sp, #-4]!)
30005514:	e92d1fff 	push	{r0, r1, r2, r3, r4, r5, r6, r7, r8, r9, sl, fp, ip}
30005518:	e10f4000 	mrs	r4, CPSR
3000551c:	e52d4004 	push	{r4}		; (str r4, [sp, #-4]!)
30005520:	e14f4000 	mrs	r4, SPSR
30005524:	e52d4004 	push	{r4}		; (str r4, [sp, #-4]!)
30005528:	e59f4040 	ldr	r4, [pc, #64]	; 30005570 <_OS_TASK_SW+0x64>
3000552c:	e59f5040 	ldr	r5, [pc, #64]	; 30005574 <_OS_TASK_SW+0x68>
30005530:	e5d56000 	ldrb	r6, [r5]
30005534:	e5c46000 	strb	r6, [r4]
30005538:	e59f4028 	ldr	r4, [pc, #40]	; 30005568 <_OS_TASK_SW+0x5c>
3000553c:	e5945000 	ldr	r5, [r4]
30005540:	e585d000 	str	sp, [r5]
30005544:	e59f6020 	ldr	r6, [pc, #32]	; 3000556c <_OS_TASK_SW+0x60>
30005548:	e5966000 	ldr	r6, [r6]
3000554c:	e596d000 	ldr	sp, [r6]
30005550:	e5846000 	str	r6, [r4]
30005554:	e49d4004 	pop	{r4}		; (ldr r4, [sp], #4)
30005558:	e169f004 	msr	SPSR_fc, r4
3000555c:	e49d4004 	pop	{r4}		; (ldr r4, [sp], #4)
30005560:	e129f004 	msr	CPSR_fc, r4
30005564:	e8bddfff 	pop	{r0, r1, r2, r3, r4, r5, r6, r7, r8, r9, sl, fp, ip, lr, pc}
30005568:	30005980 	andcc	r5, r0, r0, lsl #19
3000556c:	30005964 	andcc	r5, r0, r4, ror #18
30005570:	30005878 	andcc	r5, r0, r8, ror r8
30005574:	30005838 	andcc	r5, r0, r8, lsr r8

Disassembly of section .rodata:

30005578 <C.0.5377>:
30005578:	33323130 	teqcc	r2, #48, 2
3000557c:	37363534 			; <UNDEFINED> instruction: 0x37363534
30005580:	42413938 	submi	r3, r1, #56, 18	; 0xe0000
30005584:	46454443 	strbmi	r4, [r5], -r3, asr #8

30005588 <OSUnMapTbl>:
30005588:	00010000 	andeq	r0, r1, r0
3000558c:	00010002 	andeq	r0, r1, r2
30005590:	00010003 	andeq	r0, r1, r3
30005594:	00010002 	andeq	r0, r1, r2
30005598:	00010004 	andeq	r0, r1, r4
3000559c:	00010002 	andeq	r0, r1, r2
300055a0:	00010003 	andeq	r0, r1, r3
300055a4:	00010002 	andeq	r0, r1, r2
300055a8:	00010005 	andeq	r0, r1, r5
300055ac:	00010002 	andeq	r0, r1, r2
300055b0:	00010003 	andeq	r0, r1, r3
300055b4:	00010002 	andeq	r0, r1, r2
300055b8:	00010004 	andeq	r0, r1, r4
300055bc:	00010002 	andeq	r0, r1, r2
300055c0:	00010003 	andeq	r0, r1, r3
300055c4:	00010002 	andeq	r0, r1, r2
300055c8:	00010006 	andeq	r0, r1, r6
300055cc:	00010002 	andeq	r0, r1, r2
300055d0:	00010003 	andeq	r0, r1, r3
300055d4:	00010002 	andeq	r0, r1, r2
300055d8:	00010004 	andeq	r0, r1, r4
300055dc:	00010002 	andeq	r0, r1, r2
300055e0:	00010003 	andeq	r0, r1, r3
300055e4:	00010002 	andeq	r0, r1, r2
300055e8:	00010005 	andeq	r0, r1, r5
300055ec:	00010002 	andeq	r0, r1, r2
300055f0:	00010003 	andeq	r0, r1, r3
300055f4:	00010002 	andeq	r0, r1, r2
300055f8:	00010004 	andeq	r0, r1, r4
300055fc:	00010002 	andeq	r0, r1, r2
30005600:	00010003 	andeq	r0, r1, r3
30005604:	00010002 	andeq	r0, r1, r2
30005608:	00010007 	andeq	r0, r1, r7
3000560c:	00010002 	andeq	r0, r1, r2
30005610:	00010003 	andeq	r0, r1, r3
30005614:	00010002 	andeq	r0, r1, r2
30005618:	00010004 	andeq	r0, r1, r4
3000561c:	00010002 	andeq	r0, r1, r2
30005620:	00010003 	andeq	r0, r1, r3
30005624:	00010002 	andeq	r0, r1, r2
30005628:	00010005 	andeq	r0, r1, r5
3000562c:	00010002 	andeq	r0, r1, r2
30005630:	00010003 	andeq	r0, r1, r3
30005634:	00010002 	andeq	r0, r1, r2
30005638:	00010004 	andeq	r0, r1, r4
3000563c:	00010002 	andeq	r0, r1, r2
30005640:	00010003 	andeq	r0, r1, r3
30005644:	00010002 	andeq	r0, r1, r2
30005648:	00010006 	andeq	r0, r1, r6
3000564c:	00010002 	andeq	r0, r1, r2
30005650:	00010003 	andeq	r0, r1, r3
30005654:	00010002 	andeq	r0, r1, r2
30005658:	00010004 	andeq	r0, r1, r4
3000565c:	00010002 	andeq	r0, r1, r2
30005660:	00010003 	andeq	r0, r1, r3
30005664:	00010002 	andeq	r0, r1, r2
30005668:	00010005 	andeq	r0, r1, r5
3000566c:	00010002 	andeq	r0, r1, r2
30005670:	00010003 	andeq	r0, r1, r3
30005674:	00010002 	andeq	r0, r1, r2
30005678:	00010004 	andeq	r0, r1, r4
3000567c:	00010002 	andeq	r0, r1, r2
30005680:	00010003 	andeq	r0, r1, r3
30005684:	00010002 	andeq	r0, r1, r2

30005688 <C.30.5628>:
30005688:	30307830 	eorscc	r7, r0, r0, lsr r8
3000568c:	30303030 	eorscc	r3, r0, r0, lsr r0
30005690:	00003030 	andeq	r3, r0, r0, lsr r0

30005694 <OSMapTbl>:
30005694:	08040201 	stmdaeq	r4, {r0, r9}
30005698:	80402010 	subhi	r2, r0, r0, lsl r0

Disassembly of section .rodata.str1.4:

3000569c <.rodata.str1.4>:
3000569c:	69746e69 	ldmdbvs	r4!, {r0, r3, r5, r6, r9, sl, fp, sp, lr}^
300056a0:	73206c61 	teqvc	r0, #24832	; 0x6100
300056a4:	6d617264 	sfmvs	f7, 2, [r1, #-400]!	; 0xfffffe70
300056a8:	74616420 	strbtvc	r6, [r1], #-1056	; 0xfffffbe0
300056ac:	61682061 	cmnvs	r8, r1, rrx
300056b0:	64206576 	strtvs	r6, [r0], #-1398	; 0xfffffa8a
300056b4:	21656e6f 	cmncs	r5, pc, ror #28
300056b8:	00000d0a 	andeq	r0, r0, sl, lsl #26
300056bc:	69746e69 	ldmdbvs	r4!, {r0, r3, r5, r6, r9, sl, fp, sp, lr}^
300056c0:	75206c61 	strvc	r6, [r0, #-3169]!	; 0xfffff39f
300056c4:	30747261 	rsbscc	r7, r4, r1, ror #4
300056c8:	74657320 	strbtvc	r7, [r5], #-800	; 0xfffffce0
300056cc:	676e6974 			; <UNDEFINED> instruction: 0x676e6974
300056d0:	76616820 	strbtvc	r6, [r1], -r0, lsr #16
300056d4:	6f642065 	svcvs	0x00642065
300056d8:	0a21656e 	beq	3085ec98 <OSTickDOSCtr+0x8586c0>
300056dc:	0000000d 	andeq	r0, r0, sp
300056e0:	69746e69 	ldmdbvs	r4!, {r0, r3, r5, r6, r9, sl, fp, sp, lr}^
300056e4:	69206c61 	stmdbvs	r0!, {r0, r5, r6, sl, fp, sp, lr}
300056e8:	20207172 	eorcs	r7, r0, r2, ror r1
300056ec:	65766168 	ldrbvs	r6, [r6, #-360]!	; 0xfffffe98
300056f0:	6e6f6420 	cdpvs	4, 6, cr6, cr15, cr0, {1}
300056f4:	0d0a2165 	stfeqs	f2, [sl, #-404]	; 0xfffffe6c
300056f8:	00000000 	andeq	r0, r0, r0
300056fc:	73696874 	cmnvc	r9, #116, 16	; 0x740000
30005700:	6c6e6f20 	stclvs	15, cr6, [lr], #-128	; 0xffffff80
30005704:	6e692079 	mcrvs	0, 3, r2, cr9, cr9, {3}
30005708:	61697469 	cmnvs	r9, r9, ror #8
3000570c:	657a696c 	ldrbvs	r6, [sl, #-2412]!	; 0xfffff694
30005710:	69742073 	ldmdbvs	r4!, {r0, r1, r4, r5, r6, sp}^
30005714:	3472656d 	ldrbtcc	r6, [r2], #-1389	; 0xfffffa93
30005718:	000d0a21 	andeq	r0, sp, r1, lsr #20
3000571c:	20646e61 	rsbcs	r6, r4, r1, ror #28
30005720:	656b6174 	strbvs	r6, [fp, #-372]!	; 0xfffffe8c
30005724:	6d697420 	cfstrdvs	mvd7, [r9, #-128]!	; 0xffffff80
30005728:	20347265 	eorscs	r7, r4, r5, ror #4
3000572c:	6f746e69 	svcvs	0x00746e69
30005730:	71696620 	cmnvc	r9, r0, lsr #12
30005734:	646f6d20 	strbtvs	r6, [pc], #-3360	; 3000573c <OSMapTbl+0xa8>
30005738:	0d0a2165 	stfeqs	f2, [sl, #-404]	; 0xfffffe6c
3000573c:	00000000 	andeq	r0, r0, r0
30005740:	62616e65 	rsbvs	r6, r1, #1616	; 0x650
30005744:	7420656c 	strtvc	r6, [r0], #-1388	; 0xfffffa94
30005748:	72656d69 	rsbvc	r6, r5, #6720	; 0x1a40
3000574c:	6e612134 	mcrvs	1, 3, r2, cr1, cr4, {1}
30005750:	76652064 	strbtvc	r2, [r5], -r4, rrx
30005754:	73207972 	teqvc	r0, #1867776	; 0x1c8000
30005758:	20706574 	rsbscs	r6, r0, r4, ror r5
3000575c:	61206e69 	teqvs	r0, r9, ror #28
30005760:	63657320 	cmnvs	r5, #32, 6	; 0x80000000
30005764:	0a646e6f 	beq	31921128 <OSTickDOSCtr+0x191ab50>
30005768:	0000000d 	andeq	r0, r0, sp
3000576c:	20776f6e 	rsbscs	r6, r7, lr, ror #30
30005770:	69206f67 	stmdbvs	r0!, {r0, r1, r2, r5, r6, r8, r9, sl, fp, sp, lr}
30005774:	206f746e 	rsbcs	r7, pc, lr, ror #8
30005778:	20656874 	rsbcs	r6, r5, r4, ror r8
3000577c:	736f6375 	cmnvc	pc, #-738197503	; 0xd4000001
30005780:	00000000 	andeq	r0, r0, r0
30005784:	20776f6e 	rsbscs	r6, r7, lr, ror #30
30005788:	2074692c 	rsbscs	r6, r4, ip, lsr #18
3000578c:	69207369 	stmdbvs	r0!, {r0, r3, r5, r6, r8, r9, ip, sp, lr}
30005790:	6874206e 	ldmdavs	r4!, {r1, r2, r3, r5, r6, sp}^
30005794:	65542065 	ldrbvs	r2, [r4, #-101]	; 0xffffff9b
30005798:	61547473 	cmpvs	r4, r3, ror r4
3000579c:	46206b73 			; <UNDEFINED> instruction: 0x46206b73
300057a0:	61646e75 	smcvs	18149	; 0x46e5
300057a4:	6e6f6974 	mcrvs	9, 3, r6, cr15, cr4, {3}
300057a8:	00000a0d 	andeq	r0, r0, sp, lsl #20
300057ac:	7453534f 	ldrbvc	r5, [r3], #-847	; 0xfffffcb1
300057b0:	48747261 	ldmdami	r4!, {r0, r5, r6, r9, ip, sp, lr}^
300057b4:	52686769 	rsbpl	r6, r8, #27525120	; 0x1a40000
300057b8:	29287964 	stmdbcs	r8!, {r2, r5, r6, r8, fp, ip, sp, lr}
300057bc:	746e6520 	strbtvc	r6, [lr], #-1312	; 0xfffffae0
300057c0:	00007265 	andeq	r7, r0, r5, ror #4
300057c4:	7250534f 	subsvc	r5, r0, #1006632961	; 0x3c000001
300057c8:	69486f69 	stmdbvs	r8, {r0, r3, r5, r6, r8, r9, sl, fp, sp, lr}^
300057cc:	64526867 	ldrbvs	r6, [r2], #-2151	; 0xfffff799
300057d0:	20203a79 	eorcs	r3, r0, r9, ror sl
300057d4:	00000000 	andeq	r0, r0, r0
300057d8:	20776f6e 	rsbscs	r6, r7, lr, ror #30
300057dc:	69206562 	stmdbvs	r0!, {r1, r5, r6, r8, sl, sp, lr}
300057e0:	206f746e 	rsbcs	r7, pc, lr, ror #8
300057e4:	20656874 	rsbcs	r6, r5, r4, ror r8
300057e8:	736f6375 	cmnvc	pc, #-738197503	; 0xd4000001
300057ec:	00000000 	andeq	r0, r0, r0
300057f0:	6e49534f 	cdpvs	3, 4, cr5, cr9, cr15, {2}
300057f4:	29287469 	stmdbcs	r8!, {r0, r3, r5, r6, sl, ip, sp, lr}
300057f8:	746e6520 	strbtvc	r6, [lr], #-1312	; 0xfffffae0
300057fc:	00007265 	andeq	r7, r0, r5, ror #4
30005800:	7453534f 	ldrbvc	r5, [r3], #-847	; 0xfffffcb1
30005804:	28747261 	ldmdacs	r4!, {r0, r5, r6, r9, ip, sp, lr}^
30005808:	6e652029 	cdpvs	0, 6, cr2, cr5, cr9, {1}
3000580c:	00726574 	rsbseq	r6, r2, r4, ror r5
30005810:	20776f6e 	rsbscs	r6, r7, lr, ror #30
30005814:	74206e69 	strtvc	r6, [r0], #-3689	; 0xfffff197
30005818:	6c206568 	cfstr32vs	mvfx6, [r0], #-416	; 0xfffffe60
3000581c:	7365776f 	cmnvc	r5, #29097984	; 0x1bc0000
30005820:	72702074 	rsbsvc	r2, r0, #116	; 0x74
30005824:	74206f69 	strtvc	r6, [r0], #-3945	; 0xfffff097
30005828:	216b7361 	cmncs	fp, r1, ror #6
3000582c:	00000a0d 	andeq	r0, r0, sp, lsl #20

Disassembly of section .bss:

30005830 <OSLockNesting>:
	...

30005831 <OSRunning>:
30005831:	00000000 	andeq	r0, r0, r0

30005834 <OSIdleCtr>:
30005834:	00000000 	andeq	r0, r0, r0

30005838 <OSPrioHighRdy>:
30005838:	00000000 	andeq	r0, r0, r0

3000583c <OSFlagTbl>:
	...

30005878 <OSPrioCur>:
30005878:	00000000 	andeq	r0, r0, r0

3000587c <OSTCBList>:
3000587c:	00000000 	andeq	r0, r0, r0

30005880 <OSMemTbl>:
	...

300058e4 <OSCtxSwCtr>:
300058e4:	00000000 	andeq	r0, r0, r0

300058e8 <OSTCBFreeList>:
300058e8:	00000000 	andeq	r0, r0, r0

300058ec <uart_buffer>:
	...

3000592c <OSTaskCtr>:
3000592c:	00000000 	andeq	r0, r0, r0

30005930 <OSMemFreeList>:
30005930:	00000000 	andeq	r0, r0, r0

30005934 <OSQTbl>:
	...

30005964 <OSTCBHighRdy>:
30005964:	00000000 	andeq	r0, r0, r0

30005968 <OSQFreeList>:
30005968:	00000000 	andeq	r0, r0, r0

3000596c <OSRdyGrp>:
3000596c:	00000000 	andeq	r0, r0, r0

30005970 <OSRdyTbl>:
30005970:	00000000 	andeq	r0, r0, r0

30005974 <buf_counter>:
30005974:	00000000 	andeq	r0, r0, r0

30005978 <OSEventFreeList>:
30005978:	00000000 	andeq	r0, r0, r0

3000597c <OSIntExitY>:
	...

3000597d <OSIntNesting>:
3000597d:	00000000 	andeq	r0, r0, r0

30005980 <OSTCBCur>:
30005980:	00000000 	andeq	r0, r0, r0

30005984 <OSTime>:
30005984:	00000000 	andeq	r0, r0, r0

30005988 <OSTaskIdleStk>:
	...

30006188 <OSEventTbl>:
	...

300061a0 <OSTCBTbl>:
	...

30006410 <OSFlagFreeList>:
30006410:	00000000 	andeq	r0, r0, r0

30006414 <OSTCBPrioTbl>:
	...

30006448 <TestTaskStk>:
	...

300065d8 <OSTickDOSCtr>:
	...

Disassembly of section .ARM.attributes:

00000000 <.ARM.attributes>:
   0:	00002741 	andeq	r2, r0, r1, asr #14
   4:	61656100 	cmnvs	r5, r0, lsl #2
   8:	01006962 	tsteq	r0, r2, ror #18
   c:	0000001d 	andeq	r0, r0, sp, lsl r0
  10:	00543405 	subseq	r3, r4, r5, lsl #8
  14:	01080206 	tsteq	r8, r6, lsl #4
  18:	04120109 	ldreq	r0, [r2], #-265	; 0xfffffef7
  1c:	01150114 	tsteq	r5, r4, lsl r1
  20:	01180317 	tsteq	r8, r7, lsl r3
  24:	012c021a 	teqeq	ip, sl, lsl r2

Disassembly of section .comment:

00000000 <.comment>:
   0:	3a434347 	bcc	10d0d24 <_start-0x2ef2f2dc>
   4:	6f532820 	svcvs	0x00532820
   8:	65637275 	strbvs	r7, [r3, #-629]!	; 0xfffffd8b
   c:	47207972 			; <UNDEFINED> instruction: 0x47207972
  10:	4c202b2b 	stcmi	11, cr2, [r0], #-172	; 0xffffff54
  14:	20657469 	rsbcs	r7, r5, r9, ror #8
  18:	31313032 	teqcc	r1, r2, lsr r0
  1c:	2d33302e 	ldccs	0, cr3, [r3, #-184]!	; 0xffffff48
  20:	20293634 	eorcs	r3, r9, r4, lsr r6
  24:	2e352e34 	mrccs	14, 1, r2, cr5, cr4, {1}
  28:	Address 0x00000028 is out of bounds.

